ARM GAS  C:\Users\i354324\AppData\Local\Temp\cc7qzgBH.s 			page 1


   1              		.cpu cortex-m4
   2              		.eabi_attribute 27, 1
   3              		.eabi_attribute 28, 1
   4              		.eabi_attribute 20, 1
   5              		.eabi_attribute 21, 1
   6              		.eabi_attribute 23, 3
   7              		.eabi_attribute 24, 1
   8              		.eabi_attribute 25, 1
   9              		.eabi_attribute 26, 1
  10              		.eabi_attribute 30, 2
  11              		.eabi_attribute 34, 1
  12              		.eabi_attribute 18, 4
  13              		.file	"main.c"
  14              		.text
  15              	.Ltext0:
  16              		.cfi_sections	.debug_frame
  17              		.section	.text.SendUint8ToComputer,"ax",%progbits
  18              		.align	1
  19              		.p2align 4,,15
  20              		.global	SendUint8ToComputer
  21              		.syntax unified
  22              		.thumb
  23              		.thumb_func
  24              		.fpu fpv4-sp-d16
  25              		.type	SendUint8ToComputer, %function
  26              	SendUint8ToComputer:
  27              	.LFB260:
  28              		.file 1 "main.c"
  29              		.loc 1 29 0
  30              		.cfi_startproc
  31              		@ args = 0, pretend = 0, frame = 16
  32              		@ frame_needed = 0, uses_anonymous_args = 0
  33              	.LVL0:
  34 0000 70B5     		push	{r4, r5, r6, lr}
  35              		.cfi_def_cfa_offset 16
  36              		.cfi_offset 4, -16
  37              		.cfi_offset 5, -12
  38              		.cfi_offset 6, -8
  39              		.cfi_offset 14, -4
  40              		.loc 1 30 0
  41 0002 124C     		ldr	r4, .L6
  42              		.loc 1 29 0
  43 0004 124D     		ldr	r5, .L6+4
  44              		.loc 1 30 0
  45 0006 2368     		ldr	r3, [r4]
  46              		.loc 1 29 0
  47 0008 2A68     		ldr	r2, [r5]
  48 000a 84B0     		sub	sp, sp, #16
  49              		.cfi_def_cfa_offset 32
  50              		.loc 1 29 0
  51 000c 0646     		mov	r6, r0
  52 000e ADF80610 		strh	r1, [sp, #6]	@ movhi
  53              		.loc 1 30 0
  54 0012 1B68     		ldr	r3, [r3]
  55 0014 0F49     		ldr	r1, .L6+8
  56              	.LVL1:
  57              		.loc 1 29 0
ARM GAS  C:\Users\i354324\AppData\Local\Temp\cc7qzgBH.s 			page 2


  58 0016 0392     		str	r2, [sp, #12]
  59              		.loc 1 30 0
  60 0018 2046     		mov	r0, r4
  61              	.LVL2:
  62 001a 0522     		movs	r2, #5
  63 001c 9847     		blx	r3
  64              	.LVL3:
  65              		.loc 1 31 0
  66 001e 2368     		ldr	r3, [r4]
  67 0020 0222     		movs	r2, #2
  68 0022 1B68     		ldr	r3, [r3]
  69 0024 0DF10601 		add	r1, sp, #6
  70 0028 2046     		mov	r0, r4
  71 002a 9847     		blx	r3
  72              	.LVL4:
  73              		.loc 1 32 0
  74 002c 2368     		ldr	r3, [r4]
  75 002e BDF80620 		ldrh	r2, [sp, #6]
  76 0032 1B68     		ldr	r3, [r3]
  77 0034 3146     		mov	r1, r6
  78 0036 2046     		mov	r0, r4
  79 0038 9847     		blx	r3
  80              	.LVL5:
  81              		.loc 1 33 0
  82 003a 039A     		ldr	r2, [sp, #12]
  83 003c 2B68     		ldr	r3, [r5]
  84 003e 9A42     		cmp	r2, r3
  85 0040 01D1     		bne	.L5
  86 0042 04B0     		add	sp, sp, #16
  87              		.cfi_remember_state
  88              		.cfi_def_cfa_offset 16
  89              		@ sp needed
  90 0044 70BD     		pop	{r4, r5, r6, pc}
  91              	.LVL6:
  92              	.L5:
  93              		.cfi_restore_state
  94 0046 FFF7FEFF 		bl	__stack_chk_fail
  95              	.LVL7:
  96              	.L7:
  97 004a 00BF     		.align	2
  98              	.L6:
  99 004c 00000000 		.word	SD3
 100 0050 00000000 		.word	__stack_chk_guard
 101 0054 00000000 		.word	.LC0
 102              		.cfi_endproc
 103              	.LFE260:
 104              		.size	SendUint8ToComputer, .-SendUint8ToComputer
 105              		.section	.text.startup.main,"ax",%progbits
 106              		.align	1
 107              		.p2align 4,,15
 108              		.global	main
 109              		.syntax unified
 110              		.thumb
 111              		.thumb_func
 112              		.fpu fpv4-sp-d16
 113              		.type	main, %function
 114              	main:
ARM GAS  C:\Users\i354324\AppData\Local\Temp\cc7qzgBH.s 			page 3


 115              	.LFB262:
 116              		.loc 1 48 0
 117              		.cfi_startproc
 118              		@ Volatile: function does not return.
 119              		@ args = 0, pretend = 0, frame = 24
 120              		@ frame_needed = 0, uses_anonymous_args = 0
 121 0000 00B5     		push	{lr}
 122              		.cfi_def_cfa_offset 4
 123              		.cfi_offset 14, -4
 124 0002 1C4A     		ldr	r2, .L12
 125 0004 87B0     		sub	sp, sp, #28
 126              		.cfi_def_cfa_offset 32
 127              		.loc 1 52 0
 128 0006 0023     		movs	r3, #0
 129              		.loc 1 48 0
 130 0008 1268     		ldr	r2, [r2]
 131              		.loc 1 52 0
 132 000a 0193     		str	r3, [sp, #4]	@ float
 133              		.loc 1 53 0
 134 000c 0293     		str	r3, [sp, #8]	@ float
 135              		.loc 1 54 0
 136 000e 0393     		str	r3, [sp, #12]	@ float
 137              		.loc 1 48 0
 138 0010 0592     		str	r2, [sp, #20]
 139              		.loc 1 56 0
 140 0012 FFF7FEFF 		bl	halInit
 141              	.LVL8:
 142              		.loc 1 57 0
 143 0016 FFF7FEFF 		bl	chSysInit
 144              	.LVL9:
 145              		.loc 1 59 0
 146 001a FFF7FEFF 		bl	mpu_init
 147              	.LVL10:
 148              		.loc 1 61 0
 149 001e FFF7FEFF 		bl	motors_init
 150              	.LVL11:
 151              	.LBB4:
 152              	.LBB5:
 153              		.loc 1 44 0
 154 0022 1549     		ldr	r1, .L12+4
 155 0024 1548     		ldr	r0, .L12+8
 156 0026 FFF7FEFF 		bl	sdStart
 157              	.LVL12:
 158              	.LBE5:
 159              	.LBE4:
 160              		.loc 1 66 0
 161 002a FFF7FEFF 		bl	usb_start
 162              	.LVL13:
 163              		.loc 1 68 0
 164 002e FFF7FEFF 		bl	dcmi_start
 165              	.LVL14:
 166              		.loc 1 69 0
 167 0032 FFF7FEFF 		bl	po8030_start
 168              	.LVL15:
 169              		.loc 1 76 0
 170 0036 FFF7FEFF 		bl	imu_start
 171              	.LVL16:
ARM GAS  C:\Users\i354324\AppData\Local\Temp\cc7qzgBH.s 			page 4


 172              		.loc 1 79 0
 173 003a FFF7FEFF 		bl	proximity_start
 174              	.LVL17:
 175              		.loc 1 86 0
 176 003e 104A     		ldr	r2, .L12+12
 177 0040 1049     		ldr	r1, .L12+16
 178 0042 1148     		ldr	r0, .L12+20
 179 0044 FFF7FEFF 		bl	messagebus_init
 180              	.LVL18:
 181              		.loc 1 89 0
 182 0048 0120     		movs	r0, #1
 183 004a FFF7FEFF 		bl	set_front_led
 184              	.LVL19:
 185              		.loc 1 90 0
 186 004e FFF7FEFF 		bl	calibrate_gyro
 187              	.LVL20:
 188              		.loc 1 91 0
 189 0052 FFF7FEFF 		bl	calibrate_acc
 190              	.LVL21:
 191              		.loc 1 92 0
 192 0056 FFF7FEFF 		bl	calibrate_ir
 193              	.LVL22:
 194              		.loc 1 93 0
 195 005a 0020     		movs	r0, #0
 196 005c FFF7FEFF 		bl	set_front_led
 197              	.LVL23:
 198              		.loc 1 103 0
 199 0060 FFF7FEFF 		bl	estimator_start
 200              	.LVL24:
 201              		.loc 1 104 0
 202 0064 01A8     		add	r0, sp, #4
 203 0066 FFF7FEFF 		bl	pi_regulator_start
 204              	.LVL25:
 205              	.L9:
 206              		.loc 1 117 0 discriminator 1
 207 006a 6420     		movs	r0, #100
 208 006c FFF7FEFF 		bl	chThdSleep
 209              	.LVL26:
 210 0070 FBE7     		b	.L9
 211              	.L13:
 212 0072 00BF     		.align	2
 213              	.L12:
 214 0074 00000000 		.word	__stack_chk_guard
 215 0078 00000000 		.word	.LANCHOR0
 216 007c 00000000 		.word	SD3
 217 0080 00000000 		.word	.LANCHOR1
 218 0084 00000000 		.word	.LANCHOR2
 219 0088 00000000 		.word	.LANCHOR3
 220              		.cfi_endproc
 221              	.LFE262:
 222              		.size	main, .-main
 223              		.section	.text.__stack_chk_fail,"ax",%progbits
 224              		.align	1
 225              		.p2align 4,,15
 226              		.global	__stack_chk_fail
 227              		.syntax unified
 228              		.thumb
ARM GAS  C:\Users\i354324\AppData\Local\Temp\cc7qzgBH.s 			page 5


 229              		.thumb_func
 230              		.fpu fpv4-sp-d16
 231              		.type	__stack_chk_fail, %function
 232              	__stack_chk_fail:
 233              	.LFB263:
 234              		.loc 1 125 0
 235              		.cfi_startproc
 236              		@ args = 0, pretend = 0, frame = 8
 237              		@ frame_needed = 0, uses_anonymous_args = 0
 238 0000 00B5     		push	{lr}
 239              		.cfi_def_cfa_offset 4
 240              		.cfi_offset 14, -4
 241 0002 084B     		ldr	r3, .L19
 242 0004 83B0     		sub	sp, sp, #12
 243              		.cfi_def_cfa_offset 16
 244              		.loc 1 125 0
 245 0006 1A68     		ldr	r2, [r3]
 246 0008 0192     		str	r2, [sp, #4]
 247              		.loc 1 126 0
 248 000a 019A     		ldr	r2, [sp, #4]
 249 000c 1B68     		ldr	r3, [r3]
 250 000e 9A42     		cmp	r2, r3
 251 0010 05D1     		bne	.L18
 252 0012 0548     		ldr	r0, .L19+4
 253              		.loc 1 127 0
 254 0014 03B0     		add	sp, sp, #12
 255              		.cfi_remember_state
 256              		.cfi_def_cfa_offset 4
 257              		@ sp needed
 258 0016 5DF804EB 		ldr	lr, [sp], #4
 259              		.cfi_restore 14
 260              		.cfi_def_cfa_offset 0
 261              		.loc 1 126 0
 262 001a FFF7FEBF 		b	chSysHalt
 263              	.LVL27:
 264              	.L18:
 265              		.cfi_restore_state
 266 001e FFF7FEFF 		bl	__stack_chk_fail
 267              	.LVL28:
 268              	.L20:
 269 0022 00BF     		.align	2
 270              	.L19:
 271 0024 00000000 		.word	__stack_chk_guard
 272 0028 00000000 		.word	.LC1
 273              		.cfi_endproc
 274              	.LFE263:
 275              		.size	__stack_chk_fail, .-__stack_chk_fail
 276              		.global	__stack_chk_guard
 277              		.global	bus_condvar
 278              		.global	bus_lock
 279              		.global	bus
 280              		.section	.bss.bus,"aw",%nobits
 281              		.align	2
 282              		.set	.LANCHOR3,. + 0
 283              		.type	bus, %object
 284              		.size	bus, 12
 285              	bus:
ARM GAS  C:\Users\i354324\AppData\Local\Temp\cc7qzgBH.s 			page 6


 286 0000 00000000 		.space	12
 286      00000000 
 286      00000000 
 287              		.section	.data.__stack_chk_guard,"aw",%progbits
 288              		.align	2
 289              		.type	__stack_chk_guard, %object
 290              		.size	__stack_chk_guard, 4
 291              	__stack_chk_guard:
 292 0000 96E3DEE2 		.word	-488709226
 293              		.section	.data.bus_condvar,"aw",%progbits
 294              		.align	2
 295              		.set	.LANCHOR1,. + 0
 296              		.type	bus_condvar, %object
 297              		.size	bus_condvar, 8
 298              	bus_condvar:
 299 0000 00000000 		.word	bus_condvar
 300 0004 00000000 		.word	bus_condvar
 301              		.section	.data.bus_lock,"aw",%progbits
 302              		.align	2
 303              		.set	.LANCHOR2,. + 0
 304              		.type	bus_lock, %object
 305              		.size	bus_lock, 20
 306              	bus_lock:
 307 0000 00000000 		.word	bus_lock
 308 0004 00000000 		.word	bus_lock
 309 0008 00000000 		.word	0
 310 000c 00000000 		.word	0
 311 0010 00000000 		.word	0
 312              		.section	.data.ser_cfg.12954,"aw",%progbits
 313              		.align	2
 314              		.set	.LANCHOR0,. + 0
 315              		.type	ser_cfg.12954, %object
 316              		.size	ser_cfg.12954, 12
 317              	ser_cfg.12954:
 318 0000 00C20100 		.word	115200
 319 0004 0000     		.short	0
 320 0006 0000     		.short	0
 321 0008 0000     		.short	0
 322 000a 0000     		.space	2
 323              		.section	.rodata.SendUint8ToComputer.str1.4,"aMS",%progbits,1
 324              		.align	2
 325              	.LC0:
 326 0000 53544152 		.ascii	"START\000"
 326      5400
 327              		.section	.rodata.__stack_chk_fail.str1.4,"aMS",%progbits,1
 328              		.align	2
 329              	.LC1:
 330 0000 53746163 		.ascii	"Stack smashing detected\000"
 330      6B20736D 
 330      61736869 
 330      6E672064 
 330      65746563 
 331              		.text
 332              	.Letext0:
 333              		.file 2 "c:\\users\\i354324\\eclipse_e-puck2\\tools\\gcc-arm-none-eabi-7-2017-q4-major-win32\\arm-
 334              		.file 3 "c:\\users\\i354324\\eclipse_e-puck2\\tools\\gcc-arm-none-eabi-7-2017-q4-major-win32\\lib\
 335              		.file 4 "c:\\users\\i354324\\eclipse_e-puck2\\tools\\gcc-arm-none-eabi-7-2017-q4-major-win32\\arm-
ARM GAS  C:\Users\i354324\AppData\Local\Temp\cc7qzgBH.s 			page 7


 336              		.file 5 "c:\\users\\i354324\\eclipse_e-puck2\\tools\\gcc-arm-none-eabi-7-2017-q4-major-win32\\arm-
 337              		.file 6 "c:\\users\\i354324\\eclipse_e-puck2\\tools\\gcc-arm-none-eabi-7-2017-q4-major-win32\\arm-
 338              		.file 7 "c:\\users\\i354324\\eclipse_e-puck2\\tools\\gcc-arm-none-eabi-7-2017-q4-major-win32\\arm-
 339              		.file 8 "c:\\users\\i354324\\eclipse_e-puck2\\tools\\gcc-arm-none-eabi-7-2017-q4-major-win32\\arm-
 340              		.file 9 "c:\\users\\i354324\\eclipse_e-puck2\\tools\\gcc-arm-none-eabi-7-2017-q4-major-win32\\arm-
 341              		.file 10 "../../lib/e-puck2_main-processor/ChibiOS//os/rt/ports/ARMCMx/compilers/GCC/chtypes.h"
 342              		.file 11 "../../lib/e-puck2_main-processor/ChibiOS//os/rt/include/chsystypes.h"
 343              		.file 12 "../../lib/e-puck2_main-processor/ChibiOS//os/rt/include/chschd.h"
 344              		.file 13 "../../lib/e-puck2_main-processor/ChibiOS//os/ext/CMSIS/include/core_cm4.h"
 345              		.file 14 "../../lib/e-puck2_main-processor/ChibiOS//os/ext/CMSIS/ST/system_stm32f4xx.h"
 346              		.file 15 "../../lib/e-puck2_main-processor/ChibiOS//os/ext/CMSIS/ST/stm32f407xx.h"
 347              		.file 16 "../../lib/e-puck2_main-processor/ChibiOS//os/rt/ports/ARMCMx/chcore.h"
 348              		.file 17 "../../lib/e-puck2_main-processor/ChibiOS//os/rt/ports/ARMCMx/chcore_v7m.h"
 349              		.file 18 "../../lib/e-puck2_main-processor/ChibiOS//os/rt/include/chdebug.h"
 350              		.file 19 "../../lib/e-puck2_main-processor/ChibiOS//os/rt/include/chtm.h"
 351              		.file 20 "../../lib/e-puck2_main-processor/ChibiOS//os/rt/include/chstats.h"
 352              		.file 21 "../../lib/e-puck2_main-processor/ChibiOS//os/rt/include/chsem.h"
 353              		.file 22 "../../lib/e-puck2_main-processor/ChibiOS//os/rt/include/chmtx.h"
 354              		.file 23 "../../lib/e-puck2_main-processor/ChibiOS//os/rt/include/chregistry.h"
 355              		.file 24 "../../lib/e-puck2_main-processor/ChibiOS//os/rt/include/chcond.h"
 356              		.file 25 "../../lib/e-puck2_main-processor/ChibiOS//os/rt/include/chevents.h"
 357              		.file 26 "../../lib/e-puck2_main-processor/ChibiOS//os/rt/include/chqueues.h"
 358              		.file 27 "../../lib/e-puck2_main-processor/ChibiOS//os/rt/include/chstreams.h"
 359              		.file 28 "../../lib/e-puck2_main-processor/ChibiOS//os/hal/ports/STM32/STM32F4xx/stm32_dma.h"
 360              		.file 29 "../../lib/e-puck2_main-processor/ChibiOS//os/hal/include/hal_ioblock.h"
 361              		.file 30 "../../lib/e-puck2_main-processor/ChibiOS//os/hal/ports/STM32/LLD/GPIOv2/pal_lld.h"
 362              		.file 31 "../../lib/e-puck2_main-processor/ChibiOS//os/hal/include/adc.h"
 363              		.file 32 "../../lib/e-puck2_main-processor/ChibiOS//os/hal/ports/STM32/STM32F4xx/adc_lld.h"
 364              		.file 33 "../../lib/e-puck2_main-processor/ChibiOS//os/hal/include/can.h"
 365              		.file 34 "../../lib/e-puck2_main-processor/ChibiOS//os/hal/ports/STM32/LLD/can_lld.h"
 366              		.file 35 "../../lib/e-puck2_main-processor/ChibiOS//os/hal/include/dac.h"
 367              		.file 36 "../../lib/e-puck2_main-processor/ChibiOS//os/hal/ports/STM32/LLD/DACv1/dac_lld.h"
 368              		.file 37 "../../lib/e-puck2_main-processor/ChibiOS//os/hal/include/ext.h"
 369              		.file 38 "../../lib/e-puck2_main-processor/ChibiOS//os/hal/ports/STM32/LLD/ext_lld.h"
 370              		.file 39 "../../lib/e-puck2_main-processor/ChibiOS//os/hal/include/gpt.h"
 371              		.file 40 "../../lib/e-puck2_main-processor/ChibiOS//os/hal/ports/STM32/LLD/TIMv1/gpt_lld.h"
 372              		.file 41 "../../lib/e-puck2_main-processor/ChibiOS//os/hal/ports/STM32/LLD/TIMv1/stm32_tim.h"
 373              		.file 42 "../../lib/e-puck2_main-processor/ChibiOS//os/hal/include/i2c.h"
 374              		.file 43 "../../lib/e-puck2_main-processor/ChibiOS//os/hal/ports/STM32/LLD/I2Cv1/i2c_lld.h"
 375              		.file 44 "../../lib/e-puck2_main-processor/ChibiOS//os/hal/include/i2s.h"
 376              		.file 45 "../../lib/e-puck2_main-processor/ChibiOS//os/hal/ports/STM32/LLD/SPIv1/i2s_lld.h"
 377              		.file 46 "../../lib/e-puck2_main-processor/ChibiOS//os/hal/include/pwm.h"
 378              		.file 47 "../../lib/e-puck2_main-processor/ChibiOS//os/hal/ports/STM32/LLD/TIMv1/pwm_lld.h"
 379              		.file 48 "../../lib/e-puck2_main-processor/ChibiOS//os/hal/include/serial.h"
 380              		.file 49 "../../lib/e-puck2_main-processor/ChibiOS//os/hal/ports/STM32/LLD/USARTv1/serial_lld.h"
 381              		.file 50 "../../lib/e-puck2_main-processor/ChibiOS//os/hal/include/sdc.h"
 382              		.file 51 "../../lib/e-puck2_main-processor/ChibiOS//os/hal/ports/STM32/LLD/sdc_lld.h"
 383              		.file 52 "../../lib/e-puck2_main-processor/ChibiOS//os/hal/include/spi.h"
 384              		.file 53 "../../lib/e-puck2_main-processor/ChibiOS//os/hal/ports/STM32/LLD/SPIv1/spi_lld.h"
 385              		.file 54 "../../lib/e-puck2_main-processor/ChibiOS//os/hal/include/usb.h"
 386              		.file 55 "../../lib/e-puck2_main-processor/ChibiOS//os/hal/ports/STM32/LLD/OTGv1/usb_lld.h"
 387              		.file 56 "../../lib/e-puck2_main-processor/ChibiOS//os/hal/ports/STM32/LLD/OTGv1/stm32_otg.h"
 388              		.file 57 "../../lib/e-puck2_main-processor/ChibiOS//os/hal/include/serial_usb.h"
 389              		.file 58 "../../lib/e-puck2_main-processor/src/usbcfg.h"
 390              		.file 59 "../../lib/e-puck2_main-processor/ChibiOS_ext/os/hal/include/../ports/STM32/STM32F4xx/dcm
 391              		.file 60 "c:\\users\\i354324\\eclipse_e-puck2\\tools\\gcc-arm-none-eabi-7-2017-q4-major-win32\\arm
 392              		.file 61 "../../lib/msgbus/messagebus.h"
ARM GAS  C:\Users\i354324\AppData\Local\Temp\cc7qzgBH.s 			page 8


 393              		.file 62 "../../lib/e-puck2_main-processor/src/parameter/parameter.h"
 394              		.file 63 "./main.h"
 395              		.file 64 "pi_regulator.h"
 396              		.file 65 "../../lib/e-puck2_main-processor/ChibiOS//os/rt/include/chsys.h"
 397              		.file 66 "../../lib/e-puck2_main-processor/ChibiOS//os/hal/include/hal.h"
 398              		.file 67 "../../lib/e-puck2_main-processor/src/memory_protection.h"
 399              		.file 68 "../../lib/e-puck2_main-processor/src/motors.h"
 400              		.file 69 "../../lib/e-puck2_main-processor/src/camera/dcmi_camera.h"
 401              		.file 70 "../../lib/e-puck2_main-processor/src/camera/po8030.h"
 402              		.file 71 "../../lib/e-puck2_main-processor/src/sensors/imu.h"
 403              		.file 72 "../../lib/e-puck2_main-processor/src/sensors/proximity.h"
 404              		.file 73 "../../lib/e-puck2_main-processor/src/leds.h"
 405              		.file 74 "estimator.h"
 406              		.file 75 "../../lib/e-puck2_main-processor/ChibiOS//os/rt/include/chthreads.h"