ARM GAS  C:\Users\i354324\AppData\Local\Temp\ccmsWMLJ.s 			page 1


   1              		.cpu cortex-m4
   2              		.eabi_attribute 27, 1
   3              		.eabi_attribute 28, 1
   4              		.eabi_attribute 20, 1
   5              		.eabi_attribute 21, 1
   6              		.eabi_attribute 23, 3
   7              		.eabi_attribute 24, 1
   8              		.eabi_attribute 25, 1
   9              		.eabi_attribute 26, 1
  10              		.eabi_attribute 30, 2
  11              		.eabi_attribute 34, 1
  12              		.eabi_attribute 18, 4
  13              		.file	"pi_regulator.c"
  14              		.text
  15              	.Ltext0:
  16              		.cfi_sections	.debug_frame
  17              		.section	.text.SendFloatToComputer,"ax",%progbits
  18              		.align	1
  19              		.p2align 4,,15
  20              		.global	SendFloatToComputer
  21              		.syntax unified
  22              		.thumb
  23              		.thumb_func
  24              		.fpu fpv4-sp-d16
  25              		.type	SendFloatToComputer, %function
  26              	SendFloatToComputer:
  27              	.LFB257:
  28              		.file 1 "pi_regulator.c"
  29              		.loc 1 24 0
  30              		.cfi_startproc
  31              		@ args = 0, pretend = 0, frame = 16
  32              		@ frame_needed = 0, uses_anonymous_args = 0
  33              	.LVL0:
  34 0000 70B5     		push	{r4, r5, r6, lr}
  35              		.cfi_def_cfa_offset 16
  36              		.cfi_offset 4, -16
  37              		.cfi_offset 5, -12
  38              		.cfi_offset 6, -8
  39              		.cfi_offset 14, -4
  40 0002 124D     		ldr	r5, .L6
  41              		.loc 1 25 0
  42 0004 0368     		ldr	r3, [r0]
  43              		.loc 1 24 0
  44 0006 84B0     		sub	sp, sp, #16
  45              		.cfi_def_cfa_offset 32
  46              		.loc 1 24 0
  47 0008 0446     		mov	r4, r0
  48 000a ADF80620 		strh	r2, [sp, #6]	@ movhi
  49 000e 2A68     		ldr	r2, [r5]
  50              	.LVL1:
  51              		.loc 1 25 0
  52 0010 1B68     		ldr	r3, [r3]
  53              		.loc 1 24 0
  54 0012 0392     		str	r2, [sp, #12]
  55 0014 0E46     		mov	r6, r1
  56              		.loc 1 25 0
  57 0016 0522     		movs	r2, #5
ARM GAS  C:\Users\i354324\AppData\Local\Temp\ccmsWMLJ.s 			page 2


  58 0018 0D49     		ldr	r1, .L6+4
  59              	.LVL2:
  60 001a 9847     		blx	r3
  61              	.LVL3:
  62              		.loc 1 26 0
  63 001c 2368     		ldr	r3, [r4]
  64 001e 0222     		movs	r2, #2
  65 0020 1B68     		ldr	r3, [r3]
  66 0022 0DF10601 		add	r1, sp, #6
  67 0026 2046     		mov	r0, r4
  68 0028 9847     		blx	r3
  69              	.LVL4:
  70              		.loc 1 27 0
  71 002a 2368     		ldr	r3, [r4]
  72 002c BDF80620 		ldrh	r2, [sp, #6]
  73 0030 1B68     		ldr	r3, [r3]
  74 0032 9200     		lsls	r2, r2, #2
  75 0034 3146     		mov	r1, r6
  76 0036 2046     		mov	r0, r4
  77 0038 9847     		blx	r3
  78              	.LVL5:
  79              		.loc 1 28 0
  80 003a 039A     		ldr	r2, [sp, #12]
  81 003c 2B68     		ldr	r3, [r5]
  82 003e 9A42     		cmp	r2, r3
  83 0040 01D1     		bne	.L5
  84 0042 04B0     		add	sp, sp, #16
  85              		.cfi_remember_state
  86              		.cfi_def_cfa_offset 16
  87              		@ sp needed
  88 0044 70BD     		pop	{r4, r5, r6, pc}
  89              	.LVL6:
  90              	.L5:
  91              		.cfi_restore_state
  92 0046 FFF7FEFF 		bl	__stack_chk_fail
  93              	.LVL7:
  94              	.L7:
  95 004a 00BF     		.align	2
  96              	.L6:
  97 004c 00000000 		.word	__stack_chk_guard
  98 0050 00000000 		.word	.LC0
  99              		.cfi_endproc
 100              	.LFE257:
 101              		.size	SendFloatToComputer, .-SendFloatToComputer
 102              		.section	.text.PiRegulator,"ax",%progbits
 103              		.align	1
 104              		.p2align 4,,15
 105              		.syntax unified
 106              		.thumb
 107              		.thumb_func
 108              		.fpu fpv4-sp-d16
 109              		.type	PiRegulator, %function
 110              	PiRegulator:
 111              	.LFB260:
 112              		.loc 1 107 0
 113              		.cfi_startproc
 114              		@ args = 0, pretend = 0, frame = 8
ARM GAS  C:\Users\i354324\AppData\Local\Temp\ccmsWMLJ.s 			page 3


 115              		@ frame_needed = 0, uses_anonymous_args = 0
 116              	.LVL8:
 117 0000 2DE9F04F 		push	{r4, r5, r6, r7, r8, r9, r10, fp, lr}
 118              		.cfi_def_cfa_offset 36
 119              		.cfi_offset 4, -36
 120              		.cfi_offset 5, -32
 121              		.cfi_offset 6, -28
 122              		.cfi_offset 7, -24
 123              		.cfi_offset 8, -20
 124              		.cfi_offset 9, -16
 125              		.cfi_offset 10, -12
 126              		.cfi_offset 11, -8
 127              		.cfi_offset 14, -4
 128              	.LBB48:
 129              	.LBB49:
 130              		.file 2 "../../lib/e-puck2_main-processor/ChibiOS//os/rt/include/chregistry.h"
 131              		.loc 2 135 0
 132 0004 254C     		ldr	r4, .L14
 133              	.LBE49:
 134              	.LBE48:
 135              		.loc 1 107 0
 136 0006 264B     		ldr	r3, .L14+4
 137              	.LBB52:
 138              	.LBB50:
 139              		.loc 2 135 0
 140 0008 A269     		ldr	r2, [r4, #24]
 141 000a 2649     		ldr	r1, .L14+8
 142 000c DFF89C80 		ldr	r8, .L14+16
 143              	.LBE50:
 144              	.LBE52:
 145              		.loc 1 107 0
 146 0010 1B68     		ldr	r3, [r3]
 147              	.LBB53:
 148              	.LBB51:
 149              		.loc 2 135 0
 150 0012 9161     		str	r1, [r2, #24]
 151              	.LBE51:
 152              	.LBE53:
 153              		.loc 1 107 0
 154 0014 83B0     		sub	sp, sp, #12
 155              		.cfi_def_cfa_offset 48
 156 0016 244E     		ldr	r6, .L14+12
 157              		.loc 1 107 0
 158 0018 0193     		str	r3, [sp, #4]
 159              	.LVL9:
 160              	.LBB54:
 161              	.LBB55:
 162              	.LBB56:
 163              	.LBB57:
 164              		.file 3 "../../lib/e-puck2_main-processor/ChibiOS//os/rt/include/chsys.h"
 165              		.loc 3 367 0
 166 001a DFF89490 		ldr	r9, .L14+20
 167              	.LBE57:
 168              	.LBE56:
 169              	.LBE55:
 170              	.LBE54:
 171              		.loc 1 216 0
ARM GAS  C:\Users\i354324\AppData\Local\Temp\ccmsWMLJ.s 			page 4


 172 001e DFF894B0 		ldr	fp, .L14+24
 173              		.loc 1 136 0
 174 0022 FFF7FEFF 		bl	calibrate_gyro
 175              	.LVL10:
 176              		.loc 1 216 0
 177 0026 C246     		mov	r10, r8
 178              		.loc 1 137 0
 179 0028 FFF7FEFF 		bl	calibrate_acc
 180              	.LVL11:
 181              		.loc 1 138 0
 182 002c FFF7FEFF 		bl	calibrate_ir
 183              	.LVL12:
 184 0030 04E0     		b	.L11
 185              	.LVL13:
 186              	.L10:
 187              		.loc 1 222 0
 188 0032 05F10A01 		add	r1, r5, #10
 189 0036 2846     		mov	r0, r5
 190 0038 FFF7FEFF 		bl	chThdSleepUntilWindowed
 191              	.LVL14:
 192              	.L11:
 193              	.LBB74:
 194              	.LBB73:
 195              	.LBB65:
 196              	.LBB66:
 197              	.LBB67:
 198              	.LBB68:
 199              	.LBB69:
 200              		.file 4 "../../lib/e-puck2_main-processor/ChibiOS//os/ext/CMSIS/include/core_cmFunc.h"
 201              		.loc 4 546 0
 202 003c 2023     		movs	r3, #32
 203              		.syntax unified
 204              	@ 546 "../../lib/e-puck2_main-processor/ChibiOS//os/ext/CMSIS/include/core_cmFunc.h" 1
 205 003e 83F31188 		MSR basepri, r3
 206              	@ 0 "" 2
 207              	.LVL15:
 208              		.thumb
 209              		.syntax unified
 210              	.LBE69:
 211              	.LBE68:
 212              	.LBE67:
 213              		.loc 3 349 0
 214 0042 FFF7FEFF 		bl	_stats_start_measure_crit_thd
 215              	.LVL16:
 216              		.loc 3 350 0
 217 0046 FFF7FEFF 		bl	_dbg_check_lock
 218              	.LVL17:
 219              	.LBE66:
 220              	.LBE65:
 221              	.LBB70:
 222              	.LBB71:
 223              		.file 5 "../../lib/e-puck2_main-processor/ChibiOS//os/rt/include/chvt.h"
 224              		.loc 5 231 0
 225 004a A56A     		ldr	r5, [r4, #40]
 226              	.LBE71:
 227              	.LBE70:
 228              	.LBB72:
ARM GAS  C:\Users\i354324\AppData\Local\Temp\ccmsWMLJ.s 			page 5


 229              	.LBB64:
 230              		.loc 3 360 0
 231 004c FFF7FEFF 		bl	_dbg_check_unlock
 232              	.LVL18:
 233              		.loc 3 361 0
 234 0050 FFF7FEFF 		bl	_stats_stop_measure_crit_thd
 235              	.LVL19:
 236              		.loc 3 367 0
 237 0054 2368     		ldr	r3, [r4]
 238 0056 A342     		cmp	r3, r4
 239              	.LBB58:
 240              	.LBB59:
 241              	.LBB60:
 242              		.loc 4 546 0
 243 0058 4FF00007 		mov	r7, #0
 244              	.LBE60:
 245              	.LBE59:
 246              	.LBE58:
 247              		.loc 3 367 0
 248 005c 07D0     		beq	.L9
 249 005e A269     		ldr	r2, [r4, #24]
 250 0060 9B68     		ldr	r3, [r3, #8]
 251 0062 9268     		ldr	r2, [r2, #8]
 252 0064 9A42     		cmp	r2, r3
 253 0066 02D2     		bcs	.L9
 254 0068 4846     		mov	r0, r9
 255 006a FFF7FEFF 		bl	chSysHalt
 256              	.LVL20:
 257              	.L9:
 258              	.LBB63:
 259              	.LBB62:
 260              	.LBB61:
 261              		.loc 4 546 0
 262              		.syntax unified
 263              	@ 546 "../../lib/e-puck2_main-processor/ChibiOS//os/ext/CMSIS/include/core_cmFunc.h" 1
 264 006e 87F31188 		MSR basepri, r7
 265              	@ 0 "" 2
 266              	.LVL21:
 267              		.thumb
 268              		.syntax unified
 269              	.LBE61:
 270              	.LBE62:
 271              	.LBE63:
 272              	.LBE64:
 273              	.LBE72:
 274              	.LBE73:
 275              	.LBE74:
 276              		.loc 1 156 0
 277 0072 0120     		movs	r0, #1
 278 0074 FFF7FEFF 		bl	get_computed_acc
 279              	.LVL22:
 280              		.loc 1 213 0
 281 0078 3388     		ldrh	r3, [r6]
 282 007a 5A1C     		adds	r2, r3, #1
 283 007c 92B2     		uxth	r2, r2
 284 007e 08EB8303 		add	r3, r8, r3, lsl #2
 285              		.loc 1 215 0
ARM GAS  C:\Users\i354324\AppData\Local\Temp\ccmsWMLJ.s 			page 6


 286 0082 B2F5806F 		cmp	r2, #1024
 287              		.loc 1 213 0
 288 0086 83ED000A 		vstr.32	s0, [r3]
 289 008a 3280     		strh	r2, [r6]	@ movhi
 290              		.loc 1 215 0
 291 008c D1D1     		bne	.L10
 292              		.loc 1 216 0
 293 008e 5146     		mov	r1, r10
 294 0090 5846     		mov	r0, fp
 295 0092 FFF7FEFF 		bl	SendFloatToComputer
 296              	.LVL23:
 297              		.loc 1 217 0
 298 0096 3780     		strh	r7, [r6]	@ movhi
 299 0098 CBE7     		b	.L10
 300              	.L15:
 301 009a 00BF     		.align	2
 302              	.L14:
 303 009c 00000000 		.word	ch
 304 00a0 00000000 		.word	__stack_chk_guard
 305 00a4 00000000 		.word	.LANCHOR0
 306 00a8 00000000 		.word	.LANCHOR2
 307 00ac 00000000 		.word	acc
 308 00b0 00000000 		.word	.LANCHOR1
 309 00b4 00000000 		.word	SD3
 310              		.cfi_endproc
 311              	.LFE260:
 312              		.size	PiRegulator, .-PiRegulator
 313              		.section	.text.SendFloatToComputerFast,"ax",%progbits
 314              		.align	1
 315              		.p2align 4,,15
 316              		.global	SendFloatToComputerFast
 317              		.syntax unified
 318              		.thumb
 319              		.thumb_func
 320              		.fpu fpv4-sp-d16
 321              		.type	SendFloatToComputerFast, %function
 322              	SendFloatToComputerFast:
 323              	.LFB258:
 324              		.loc 1 31 0
 325              		.cfi_startproc
 326              		@ args = 0, pretend = 0, frame = 16
 327              		@ frame_needed = 0, uses_anonymous_args = 0
 328              	.LVL24:
 329 0000 10B5     		push	{r4, lr}
 330              		.cfi_def_cfa_offset 8
 331              		.cfi_offset 4, -8
 332              		.cfi_offset 14, -4
 333 0002 0A4C     		ldr	r4, .L20
 334              		.loc 1 32 0
 335 0004 0368     		ldr	r3, [r0]
 336              		.loc 1 31 0
 337 0006 2268     		ldr	r2, [r4]
 338 0008 84B0     		sub	sp, sp, #16
 339              		.cfi_def_cfa_offset 24
 340              		.loc 1 31 0
 341 000a 8DED010A 		vstr.32	s0, [sp, #4]
 342 000e 0392     		str	r2, [sp, #12]
ARM GAS  C:\Users\i354324\AppData\Local\Temp\ccmsWMLJ.s 			page 7


 343              		.loc 1 32 0
 344 0010 0422     		movs	r2, #4
 345 0012 1B68     		ldr	r3, [r3]
 346 0014 0DEB0201 		add	r1, sp, r2
 347 0018 9847     		blx	r3
 348              	.LVL25:
 349              		.loc 1 33 0
 350 001a 039A     		ldr	r2, [sp, #12]
 351 001c 2368     		ldr	r3, [r4]
 352 001e 9A42     		cmp	r2, r3
 353 0020 01D1     		bne	.L19
 354 0022 04B0     		add	sp, sp, #16
 355              		.cfi_remember_state
 356              		.cfi_def_cfa_offset 8
 357              		@ sp needed
 358 0024 10BD     		pop	{r4, pc}
 359              	.L19:
 360              		.cfi_restore_state
 361 0026 FFF7FEFF 		bl	__stack_chk_fail
 362              	.LVL26:
 363              	.L21:
 364 002a 00BF     		.align	2
 365              	.L20:
 366 002c 00000000 		.word	__stack_chk_guard
 367              		.cfi_endproc
 368              	.LFE258:
 369              		.size	SendFloatToComputerFast, .-SendFloatToComputerFast
 370              		.section	.text.ReceiveFloatFromComputer,"ax",%progbits
 371              		.align	1
 372              		.p2align 4,,15
 373              		.global	ReceiveFloatFromComputer
 374              		.syntax unified
 375              		.thumb
 376              		.thumb_func
 377              		.fpu fpv4-sp-d16
 378              		.type	ReceiveFloatFromComputer, %function
 379              	ReceiveFloatFromComputer:
 380              	.LFB259:
 381              		.loc 1 36 0
 382              		.cfi_startproc
 383              		@ args = 0, pretend = 0, frame = 16
 384              		@ frame_needed = 0, uses_anonymous_args = 0
 385              	.LVL27:
 386 0000 2DE9F047 		push	{r4, r5, r6, r7, r8, r9, r10, lr}
 387              		.cfi_def_cfa_offset 32
 388              		.cfi_offset 4, -32
 389              		.cfi_offset 5, -28
 390              		.cfi_offset 6, -24
 391              		.cfi_offset 7, -20
 392              		.cfi_offset 8, -16
 393              		.cfi_offset 9, -12
 394              		.cfi_offset 10, -8
 395              		.cfi_offset 14, -4
 396 0004 DFF8EC80 		ldr	r8, .L55
 397 0008 84B0     		sub	sp, sp, #16
 398              		.cfi_def_cfa_offset 48
 399              		.loc 1 36 0
ARM GAS  C:\Users\i354324\AppData\Local\Temp\ccmsWMLJ.s 			page 8


 400 000a D8F80040 		ldr	r4, [r8]
 401 000e 0394     		str	r4, [sp, #12]
 402              		.loc 1 39 0
 403 0010 0023     		movs	r3, #0
 404 0012 ADF80A30 		strh	r3, [sp, #10]	@ movhi
 405              	.LVL28:
 406              		.loc 1 36 0
 407 0016 0446     		mov	r4, r0
 408 0018 8A46     		mov	r10, r1
 409 001a 9146     		mov	r9, r2
 410              		.loc 1 86 0
 411 001c 1D46     		mov	r5, r3
 412              		.loc 1 42 0
 413 001e 8DF80930 		strb	r3, [sp, #9]
 414              		.loc 1 84 0
 415 0022 0126     		movs	r6, #1
 416              		.loc 1 82 0
 417 0024 0527     		movs	r7, #5
 418              	.LVL29:
 419              	.L24:
 420              		.loc 1 43 0
 421 0026 9DF80920 		ldrb	r2, [sp, #9]	@ zero_extendqisi2
 422 002a 2368     		ldr	r3, [r4]
 423 002c 052A     		cmp	r2, #5
 424 002e DB68     		ldr	r3, [r3, #12]
 425              		.loc 1 45 0
 426 0030 2046     		mov	r0, r4
 427              		.loc 1 43 0
 428 0032 34D0     		beq	.L52
 429              	.LVL30:
 430              		.loc 1 45 0
 431 0034 9847     		blx	r3
 432              	.LVL31:
 433 0036 C0B2     		uxtb	r0, r0
 434 0038 8DF80700 		strb	r0, [sp, #7]
 435              		.loc 1 49 0
 436 003c 9DF80930 		ldrb	r3, [sp, #9]	@ zero_extendqisi2
 437 0040 042B     		cmp	r3, #4
 438 0042 F0D8     		bhi	.L24
 439 0044 DFE803F0 		tbb	[pc, r3]
 440              	.L26:
 441 0048 07       		.byte	(.L39-.L26)/2
 442 0049 20       		.byte	(.L27-.L26)/2
 443 004a 18       		.byte	(.L28-.L26)/2
 444 004b 10       		.byte	(.L29-.L26)/2
 445 004c 03       		.byte	(.L30-.L26)/2
 446 004d 00       		.p2align 1
 447              	.L30:
 448              		.loc 1 81 0
 449 004e 9DF80730 		ldrb	r3, [sp, #7]	@ zero_extendqisi2
 450 0052 542B     		cmp	r3, #84
 451 0054 20D0     		beq	.L53
 452              	.L39:
 453              		.loc 1 83 0
 454 0056 9DF80730 		ldrb	r3, [sp, #7]	@ zero_extendqisi2
 455 005a 532B     		cmp	r3, #83
 456              		.loc 1 84 0
ARM GAS  C:\Users\i354324\AppData\Local\Temp\ccmsWMLJ.s 			page 9


 457 005c 0CBF     		ite	eq
 458 005e 8DF80960 		strbeq	r6, [sp, #9]
 459              		.loc 1 86 0
 460 0062 8DF80950 		strbne	r5, [sp, #9]
 461 0066 DEE7     		b	.L24
 462              	.L29:
 463              		.loc 1 73 0
 464 0068 9DF80730 		ldrb	r3, [sp, #7]	@ zero_extendqisi2
 465 006c 522B     		cmp	r3, #82
 466 006e F2D1     		bne	.L39
 467              		.loc 1 74 0
 468 0070 0423     		movs	r3, #4
 469 0072 8DF80930 		strb	r3, [sp, #9]
 470 0076 D6E7     		b	.L24
 471              	.L28:
 472              		.loc 1 65 0
 473 0078 9DF80730 		ldrb	r3, [sp, #7]	@ zero_extendqisi2
 474 007c 412B     		cmp	r3, #65
 475 007e EAD1     		bne	.L39
 476              		.loc 1 66 0
 477 0080 0323     		movs	r3, #3
 478 0082 8DF80930 		strb	r3, [sp, #9]
 479 0086 CEE7     		b	.L24
 480              	.L27:
 481              		.loc 1 57 0
 482 0088 9DF80730 		ldrb	r3, [sp, #7]	@ zero_extendqisi2
 483 008c 542B     		cmp	r3, #84
 484 008e E2D1     		bne	.L39
 485              		.loc 1 58 0
 486 0090 0223     		movs	r3, #2
 487 0092 8DF80930 		strb	r3, [sp, #9]
 488 0096 C6E7     		b	.L24
 489              	.L53:
 490              		.loc 1 82 0
 491 0098 8DF80970 		strb	r7, [sp, #9]
 492 009c C3E7     		b	.L24
 493              	.LVL32:
 494              	.L52:
 495              		.loc 1 92 0
 496 009e 9847     		blx	r3
 497              	.LVL33:
 498              		.loc 1 93 0
 499 00a0 2368     		ldr	r3, [r4]
 500              		.loc 1 92 0
 501 00a2 C0B2     		uxtb	r0, r0
 502              		.loc 1 93 0
 503 00a4 DB68     		ldr	r3, [r3, #12]
 504              		.loc 1 92 0
 505 00a6 8DF80700 		strb	r0, [sp, #7]
 506              		.loc 1 93 0
 507 00aa 2046     		mov	r0, r4
 508 00ac 9847     		blx	r3
 509              	.LVL34:
 510 00ae C0B2     		uxtb	r0, r0
 511 00b0 8DF80800 		strb	r0, [sp, #8]
 512              		.loc 1 97 0
 513 00b4 9DF80730 		ldrb	r3, [sp, #7]	@ zero_extendqisi2
ARM GAS  C:\Users\i354324\AppData\Local\Temp\ccmsWMLJ.s 			page 10


 514 00b8 9DF80820 		ldrb	r2, [sp, #8]	@ zero_extendqisi2
 515 00bc 43EA0223 		orr	r3, r3, r2, lsl #8
 516 00c0 ADF80A30 		strh	r3, [sp, #10]	@ movhi
 517              		.loc 1 99 0
 518 00c4 BDF80A30 		ldrh	r3, [sp, #10]
 519 00c8 B9EB930F 		cmp	r9, r3, lsr #2
 520 00cc 06D1     		bne	.L42
 521              		.loc 1 100 0
 522 00ce 2368     		ldr	r3, [r4]
 523 00d0 BDF80A20 		ldrh	r2, [sp, #10]
 524 00d4 5B68     		ldr	r3, [r3, #4]
 525 00d6 5146     		mov	r1, r10
 526 00d8 2046     		mov	r0, r4
 527 00da 9847     		blx	r3
 528              	.LVL35:
 529              	.L42:
 530              		.loc 1 102 0
 531 00dc BDF80A00 		ldrh	r0, [sp, #10]
 532              		.loc 1 104 0
 533 00e0 039A     		ldr	r2, [sp, #12]
 534 00e2 D8F80030 		ldr	r3, [r8]
 535 00e6 9A42     		cmp	r2, r3
 536 00e8 02D1     		bne	.L54
 537 00ea 04B0     		add	sp, sp, #16
 538              		.cfi_remember_state
 539              		.cfi_def_cfa_offset 32
 540              		@ sp needed
 541 00ec BDE8F087 		pop	{r4, r5, r6, r7, r8, r9, r10, pc}
 542              	.LVL36:
 543              	.L54:
 544              		.cfi_restore_state
 545 00f0 FFF7FEFF 		bl	__stack_chk_fail
 546              	.LVL37:
 547              	.L56:
 548              		.align	2
 549              	.L55:
 550 00f4 00000000 		.word	__stack_chk_guard
 551              		.cfi_endproc
 552              	.LFE259:
 553              		.size	ReceiveFloatFromComputer, .-ReceiveFloatFromComputer
 554              		.section	.text.PiRegulatorReader,"ax",%progbits
 555              		.align	1
 556              		.p2align 4,,15
 557              		.syntax unified
 558              		.thumb
 559              		.thumb_func
 560              		.fpu fpv4-sp-d16
 561              		.type	PiRegulatorReader, %function
 562              	PiRegulatorReader:
 563              	.LFB261:
 564              		.loc 1 228 0
 565              		.cfi_startproc
 566              		@ args = 0, pretend = 0, frame = 16
 567              		@ frame_needed = 0, uses_anonymous_args = 0
 568              	.LVL38:
 569 0000 30B5     		push	{r4, r5, lr}
 570              		.cfi_def_cfa_offset 12
ARM GAS  C:\Users\i354324\AppData\Local\Temp\ccmsWMLJ.s 			page 11


 571              		.cfi_offset 4, -12
 572              		.cfi_offset 5, -8
 573              		.cfi_offset 14, -4
 574 0002 0D4B     		ldr	r3, .L61
 575              		.loc 1 233 0
 576 0004 0D4D     		ldr	r5, .L61+4
 577              		.loc 1 228 0
 578 0006 1B68     		ldr	r3, [r3]
 579 0008 85B0     		sub	sp, sp, #20
 580              		.cfi_def_cfa_offset 32
 581              		.loc 1 228 0
 582 000a 0446     		mov	r4, r0
 583              	.LVL39:
 584 000c 0393     		str	r3, [sp, #12]
 585              	.LVL40:
 586              	.L58:
 587              		.loc 1 233 0 discriminator 1
 588 000e 01A9     		add	r1, sp, #4
 589 0010 0222     		movs	r2, #2
 590 0012 2846     		mov	r0, r5
 591 0014 FFF7FEFF 		bl	ReceiveFloatFromComputer
 592              	.LVL41:
 593              		.loc 1 234 0 discriminator 1
 594 0018 019A     		ldr	r2, [sp, #4]	@ float
 595              		.loc 1 235 0 discriminator 1
 596 001a 029B     		ldr	r3, [sp, #8]	@ float
 597              		.loc 1 234 0 discriminator 1
 598 001c 2260     		str	r2, [r4]	@ float
 599              		.loc 1 235 0 discriminator 1
 600 001e 6360     		str	r3, [r4, #4]	@ float
 601              		.loc 1 237 0 discriminator 1
 602 0020 0120     		movs	r0, #1
 603 0022 FFF7FEFF 		bl	set_front_led
 604              	.LVL42:
 605              		.loc 1 238 0 discriminator 1
 606 0026 4FF47A70 		mov	r0, #1000
 607 002a FFF7FEFF 		bl	chThdSleep
 608              	.LVL43:
 609              		.loc 1 239 0 discriminator 1
 610 002e 0020     		movs	r0, #0
 611 0030 FFF7FEFF 		bl	set_front_led
 612              	.LVL44:
 613 0034 EBE7     		b	.L58
 614              	.L62:
 615 0036 00BF     		.align	2
 616              	.L61:
 617 0038 00000000 		.word	__stack_chk_guard
 618 003c 00000000 		.word	SD3
 619              		.cfi_endproc
 620              	.LFE261:
 621              		.size	PiRegulatorReader, .-PiRegulatorReader
 622              		.section	.text.pi_regulator_start,"ax",%progbits
 623              		.align	1
 624              		.p2align 4,,15
 625              		.global	pi_regulator_start
 626              		.syntax unified
 627              		.thumb
ARM GAS  C:\Users\i354324\AppData\Local\Temp\ccmsWMLJ.s 			page 12


 628              		.thumb_func
 629              		.fpu fpv4-sp-d16
 630              		.type	pi_regulator_start, %function
 631              	pi_regulator_start:
 632              	.LFB262:
 633              		.loc 1 243 0
 634              		.cfi_startproc
 635              		@ args = 0, pretend = 0, frame = 8
 636              		@ frame_needed = 0, uses_anonymous_args = 0
 637              	.LVL45:
 638 0000 30B5     		push	{r4, r5, lr}
 639              		.cfi_def_cfa_offset 12
 640              		.cfi_offset 4, -12
 641              		.cfi_offset 5, -8
 642              		.cfi_offset 14, -4
 643 0002 0E4C     		ldr	r4, .L67
 644              		.loc 1 244 0
 645 0004 0E4B     		ldr	r3, .L67+4
 646              		.loc 1 243 0
 647 0006 2268     		ldr	r2, [r4]
 648 0008 85B0     		sub	sp, sp, #20
 649              		.cfi_def_cfa_offset 32
 650              		.loc 1 243 0
 651 000a 0546     		mov	r5, r0
 652 000c 0392     		str	r2, [sp, #12]
 653              		.loc 1 244 0
 654 000e 0090     		str	r0, [sp]
 655 0010 4022     		movs	r2, #64
 656 0012 4FF41E71 		mov	r1, #632
 657 0016 0B48     		ldr	r0, .L67+8
 658              	.LVL46:
 659 0018 FFF7FEFF 		bl	chThdCreateStatic
 660              	.LVL47:
 661              		.loc 1 245 0
 662 001c 0A4B     		ldr	r3, .L67+12
 663 001e 0095     		str	r5, [sp]
 664 0020 4122     		movs	r2, #65
 665 0022 0A48     		ldr	r0, .L67+16
 666 0024 4FF41E71 		mov	r1, #632
 667 0028 FFF7FEFF 		bl	chThdCreateStatic
 668              	.LVL48:
 669              		.loc 1 246 0
 670 002c 039A     		ldr	r2, [sp, #12]
 671 002e 2368     		ldr	r3, [r4]
 672 0030 9A42     		cmp	r2, r3
 673 0032 01D1     		bne	.L66
 674 0034 05B0     		add	sp, sp, #20
 675              		.cfi_remember_state
 676              		.cfi_def_cfa_offset 12
 677              		@ sp needed
 678 0036 30BD     		pop	{r4, r5, pc}
 679              	.LVL49:
 680              	.L66:
 681              		.cfi_restore_state
 682 0038 FFF7FEFF 		bl	__stack_chk_fail
 683              	.LVL50:
 684              	.L68:
ARM GAS  C:\Users\i354324\AppData\Local\Temp\ccmsWMLJ.s 			page 13


 685              		.align	2
 686              	.L67:
 687 003c 00000000 		.word	__stack_chk_guard
 688 0040 00000000 		.word	PiRegulator
 689 0044 00000000 		.word	.LANCHOR3
 690 0048 00000000 		.word	PiRegulatorReader
 691 004c 00000000 		.word	.LANCHOR4
 692              		.cfi_endproc
 693              	.LFE262:
 694              		.size	pi_regulator_start, .-pi_regulator_start
 695              		.section	.bss.acc,"aw",%nobits
 696              		.align	2
 697              		.type	acc, %object
 698              		.size	acc, 4096
 699              	acc:
 700 0000 00000000 		.space	4096
 700      00000000 
 700      00000000 
 700      00000000 
 700      00000000 
 701              		.section	.bss.i,"aw",%nobits
 702              		.align	1
 703              		.set	.LANCHOR2,. + 0
 704              		.type	i, %object
 705              		.size	i, 2
 706              	i:
 707 0000 0000     		.space	2
 708              		.section	.bss.waPiRegulator,"aw",%nobits
 709              		.align	3
 710              		.set	.LANCHOR3,. + 0
 711              		.type	waPiRegulator, %object
 712              		.size	waPiRegulator, 632
 713              	waPiRegulator:
 714 0000 00000000 		.space	632
 714      00000000 
 714      00000000 
 714      00000000 
 714      00000000 
 715              		.section	.bss.waPiRegulatorReader,"aw",%nobits
 716              		.align	3
 717              		.set	.LANCHOR4,. + 0
 718              		.type	waPiRegulatorReader, %object
 719              		.size	waPiRegulatorReader, 632
 720              	waPiRegulatorReader:
 721 0000 00000000 		.space	632
 721      00000000 
 721      00000000 
 721      00000000 
 721      00000000 
 722              		.section	.rodata.SendFloatToComputer.str1.4,"aMS",%progbits,1
 723              		.align	2
 724              	.LC0:
 725 0000 53544152 		.ascii	"START\000"
 725      5400
 726              		.section	.rodata.__FUNCTION__.12015,"a",%progbits
 727              		.align	2
 728              		.set	.LANCHOR0,. + 0
ARM GAS  C:\Users\i354324\AppData\Local\Temp\ccmsWMLJ.s 			page 14


 729              		.type	__FUNCTION__.12015, %object
 730              		.size	__FUNCTION__.12015, 12
 731              	__FUNCTION__.12015:
 732 0000 50695265 		.ascii	"PiRegulator\000"
 732      67756C61 
 732      746F7200 
 733              		.section	.rodata.__func__.7153,"a",%progbits
 734              		.align	2
 735              		.set	.LANCHOR1,. + 0
 736              		.type	__func__.7153, %object
 737              		.size	__func__.7153, 12
 738              	__func__.7153:
 739 0000 63685379 		.ascii	"chSysUnlock\000"
 739      73556E6C 
 739      6F636B00 
 740              		.text
 741              	.Letext0:
 742              		.file 6 "c:\\users\\i354324\\eclipse_e-puck2\\tools\\gcc-arm-none-eabi-7-2017-q4-major-win32\\lib\
 743              		.file 7 "c:\\users\\i354324\\eclipse_e-puck2\\tools\\gcc-arm-none-eabi-7-2017-q4-major-win32\\arm-
 744              		.file 8 "c:\\users\\i354324\\eclipse_e-puck2\\tools\\gcc-arm-none-eabi-7-2017-q4-major-win32\\arm-
 745              		.file 9 "../../lib/e-puck2_main-processor/ChibiOS//os/rt/ports/ARMCMx/compilers/GCC/chtypes.h"
 746              		.file 10 "../../lib/e-puck2_main-processor/ChibiOS//os/rt/include/chsystypes.h"
 747              		.file 11 "../../lib/e-puck2_main-processor/ChibiOS//os/rt/include/chschd.h"
 748              		.file 12 "../../lib/e-puck2_main-processor/ChibiOS//os/ext/CMSIS/include/core_cm4.h"
 749              		.file 13 "../../lib/e-puck2_main-processor/ChibiOS//os/ext/CMSIS/ST/system_stm32f4xx.h"
 750              		.file 14 "../../lib/e-puck2_main-processor/ChibiOS//os/ext/CMSIS/ST/stm32f407xx.h"
 751              		.file 15 "../../lib/e-puck2_main-processor/ChibiOS//os/rt/ports/ARMCMx/chcore.h"
 752              		.file 16 "../../lib/e-puck2_main-processor/ChibiOS//os/rt/ports/ARMCMx/chcore_v7m.h"
 753              		.file 17 "../../lib/e-puck2_main-processor/ChibiOS//os/rt/include/chdebug.h"
 754              		.file 18 "../../lib/e-puck2_main-processor/ChibiOS//os/rt/include/chtm.h"
 755              		.file 19 "../../lib/e-puck2_main-processor/ChibiOS//os/rt/include/chstats.h"
 756              		.file 20 "../../lib/e-puck2_main-processor/ChibiOS//os/rt/include/chsem.h"
 757              		.file 21 "../../lib/e-puck2_main-processor/ChibiOS//os/rt/include/chmtx.h"
 758              		.file 22 "../../lib/e-puck2_main-processor/ChibiOS//os/rt/include/chbsem.h"
 759              		.file 23 "../../lib/e-puck2_main-processor/ChibiOS//os/rt/include/chevents.h"
 760              		.file 24 "../../lib/e-puck2_main-processor/ChibiOS//os/rt/include/chqueues.h"
 761              		.file 25 "../../lib/e-puck2_main-processor/ChibiOS//os/rt/include/chstreams.h"
 762              		.file 26 "../../lib/e-puck2_main-processor/ChibiOS//os/hal/ports/STM32/STM32F4xx/stm32_dma.h"
 763              		.file 27 "../../lib/e-puck2_main-processor/ChibiOS//os/hal/include/hal_ioblock.h"
 764              		.file 28 "../../lib/e-puck2_main-processor/ChibiOS//os/hal/ports/STM32/LLD/GPIOv2/pal_lld.h"
 765              		.file 29 "../../lib/e-puck2_main-processor/ChibiOS//os/hal/include/adc.h"
 766              		.file 30 "../../lib/e-puck2_main-processor/ChibiOS//os/hal/ports/STM32/STM32F4xx/adc_lld.h"
 767              		.file 31 "../../lib/e-puck2_main-processor/ChibiOS//os/hal/include/can.h"
 768              		.file 32 "../../lib/e-puck2_main-processor/ChibiOS//os/hal/ports/STM32/LLD/can_lld.h"
 769              		.file 33 "../../lib/e-puck2_main-processor/ChibiOS//os/hal/include/dac.h"
 770              		.file 34 "../../lib/e-puck2_main-processor/ChibiOS//os/hal/ports/STM32/LLD/DACv1/dac_lld.h"
 771              		.file 35 "../../lib/e-puck2_main-processor/ChibiOS//os/hal/include/ext.h"
 772              		.file 36 "../../lib/e-puck2_main-processor/ChibiOS//os/hal/ports/STM32/LLD/ext_lld.h"
 773              		.file 37 "../../lib/e-puck2_main-processor/ChibiOS//os/hal/include/gpt.h"
 774              		.file 38 "../../lib/e-puck2_main-processor/ChibiOS//os/hal/ports/STM32/LLD/TIMv1/gpt_lld.h"
 775              		.file 39 "../../lib/e-puck2_main-processor/ChibiOS//os/hal/ports/STM32/LLD/TIMv1/stm32_tim.h"
 776              		.file 40 "../../lib/e-puck2_main-processor/ChibiOS//os/hal/include/i2c.h"
 777              		.file 41 "../../lib/e-puck2_main-processor/ChibiOS//os/hal/ports/STM32/LLD/I2Cv1/i2c_lld.h"
 778              		.file 42 "../../lib/e-puck2_main-processor/ChibiOS//os/hal/include/i2s.h"
 779              		.file 43 "../../lib/e-puck2_main-processor/ChibiOS//os/hal/ports/STM32/LLD/SPIv1/i2s_lld.h"
 780              		.file 44 "../../lib/e-puck2_main-processor/ChibiOS//os/hal/include/pwm.h"
 781              		.file 45 "../../lib/e-puck2_main-processor/ChibiOS//os/hal/ports/STM32/LLD/TIMv1/pwm_lld.h"
ARM GAS  C:\Users\i354324\AppData\Local\Temp\ccmsWMLJ.s 			page 15


 782              		.file 46 "../../lib/e-puck2_main-processor/ChibiOS//os/hal/include/serial.h"
 783              		.file 47 "../../lib/e-puck2_main-processor/ChibiOS//os/hal/ports/STM32/LLD/USARTv1/serial_lld.h"
 784              		.file 48 "../../lib/e-puck2_main-processor/ChibiOS//os/hal/include/sdc.h"
 785              		.file 49 "../../lib/e-puck2_main-processor/ChibiOS//os/hal/ports/STM32/LLD/sdc_lld.h"
 786              		.file 50 "../../lib/e-puck2_main-processor/ChibiOS//os/hal/include/spi.h"
 787              		.file 51 "../../lib/e-puck2_main-processor/ChibiOS//os/hal/ports/STM32/LLD/SPIv1/spi_lld.h"
 788              		.file 52 "../../lib/e-puck2_main-processor/ChibiOS//os/hal/include/usb.h"
 789              		.file 53 "../../lib/e-puck2_main-processor/ChibiOS//os/hal/ports/STM32/LLD/OTGv1/usb_lld.h"
 790              		.file 54 "../../lib/e-puck2_main-processor/ChibiOS//os/hal/ports/STM32/LLD/OTGv1/stm32_otg.h"
 791              		.file 55 "../../lib/e-puck2_main-processor/ChibiOS//os/hal/include/serial_usb.h"
 792              		.file 56 "c:\\users\\i354324\\eclipse_e-puck2\\tools\\gcc-arm-none-eabi-7-2017-q4-major-win32\\arm
 793              		.file 57 "c:\\users\\i354324\\eclipse_e-puck2\\tools\\gcc-arm-none-eabi-7-2017-q4-major-win32\\arm
 794              		.file 58 "c:\\users\\i354324\\eclipse_e-puck2\\tools\\gcc-arm-none-eabi-7-2017-q4-major-win32\\arm
 795              		.file 59 "c:\\users\\i354324\\eclipse_e-puck2\\tools\\gcc-arm-none-eabi-7-2017-q4-major-win32\\arm
 796              		.file 60 "../../lib/e-puck2_main-processor/src/usbcfg.h"
 797              		.file 61 "../../lib/e-puck2_main-processor/src/sensors/mpu9250.h"
 798              		.file 62 "../../lib/e-puck2_main-processor/ChibiOS_ext/os/hal/include/../ports/STM32/STM32F4xx/dcm
 799              		.file 63 "c:\\users\\i354324\\eclipse_e-puck2\\tools\\gcc-arm-none-eabi-7-2017-q4-major-win32\\arm
 800              		.file 64 "../../lib/msgbus/messagebus.h"
 801              		.file 65 "c:\\users\\i354324\\eclipse_e-puck2\\tools\\gcc-arm-none-eabi-7-2017-q4-major-win32\\arm
 802              		.file 66 "../../lib/e-puck2_main-processor/src/parameter/parameter.h"
 803              		.file 67 "./main.h"
 804              		.file 68 "./pi_regulator.h"
 805              		.file 69 "../../lib/e-puck2_main-processor/ChibiOS//os/rt/include/chthreads.h"
 806              		.file 70 "../../lib/e-puck2_main-processor/src/leds.h"
 807              		.file 71 "../../lib/e-puck2_main-processor/src/sensors/imu.h"
 808              		.file 72 "../../lib/e-puck2_main-processor/src/sensors/proximity.h"
 809              		.file 73 "./compute_data.h"