ARM GAS  C:\Users\Steph\AppData\Local\Temp\ccMUW5TL.s 			page 1


   1              		.cpu cortex-m4
   2              		.eabi_attribute 27, 1
   3              		.eabi_attribute 28, 1
   4              		.eabi_attribute 20, 1
   5              		.eabi_attribute 21, 1
   6              		.eabi_attribute 23, 3
   7              		.eabi_attribute 24, 1
   8              		.eabi_attribute 25, 1
   9              		.eabi_attribute 26, 1
  10              		.eabi_attribute 30, 2
  11              		.eabi_attribute 34, 1
  12              		.eabi_attribute 18, 4
  13              		.file	"process_image.c"
  14              		.text
  15              	.Ltext0:
  16              		.cfi_sections	.debug_frame
  17              		.section	.text.ProcessImage,"ax",%progbits
  18              		.align	1
  19              		.p2align 4,,15
  20              		.syntax unified
  21              		.thumb
  22              		.thumb_func
  23              		.fpu fpv4-sp-d16
  24              		.type	ProcessImage, %function
  25              	ProcessImage:
  26              	.LFB258:
  27              		.file 1 "process_image.c"
  28              		.loc 1 51 0
  29              		.cfi_startproc
  30              		@ args = 0, pretend = 0, frame = 648
  31              		@ frame_needed = 0, uses_anonymous_args = 0
  32              	.LVL0:
  33 0000 2DE9F047 		push	{r4, r5, r6, r7, r8, r9, r10, lr}
  34              		.cfi_def_cfa_offset 32
  35              		.cfi_offset 4, -32
  36              		.cfi_offset 5, -28
  37              		.cfi_offset 6, -24
  38              		.cfi_offset 7, -20
  39              		.cfi_offset 8, -16
  40              		.cfi_offset 9, -12
  41              		.cfi_offset 10, -8
  42              		.cfi_offset 14, -4
  43 0004 2DED048B 		vpush.64	{d8, d9}
  44              		.cfi_def_cfa_offset 48
  45              		.cfi_offset 80, -48
  46              		.cfi_offset 81, -44
  47              		.cfi_offset 82, -40
  48              		.cfi_offset 83, -36
  49              	.LBB37:
  50              	.LBB38:
  51              		.file 2 "../../lib/e-puck2_main-processor/ChibiOS//os/rt/include/chregistry.h"
  52              		.loc 2 135 0
  53 0008 404A     		ldr	r2, .L17
  54              	.LBE38:
  55              	.LBE37:
  56              		.loc 1 51 0
  57 000a 414B     		ldr	r3, .L17+4
ARM GAS  C:\Users\Steph\AppData\Local\Temp\ccMUW5TL.s 			page 2


  58              	.LBB40:
  59              	.LBB39:
  60              		.loc 2 135 0
  61 000c 9269     		ldr	r2, [r2, #24]
  62 000e 4149     		ldr	r1, .L17+8
  63 0010 9161     		str	r1, [r2, #24]
  64              	.LBE39:
  65              	.LBE40:
  66              		.loc 1 51 0
  67 0012 ADF5227D 		sub	sp, sp, #648
  68              		.cfi_def_cfa_offset 696
  69              		.loc 1 51 0
  70 0016 1B68     		ldr	r3, [r3]
  71 0018 A193     		str	r3, [sp, #644]
  72              		.loc 1 57 0
  73 001a 01A8     		add	r0, sp, #4
  74              	.LVL1:
  75 001c 4FF42072 		mov	r2, #640
  76 0020 0021     		movs	r1, #0
  77 0022 FFF7FEFF 		bl	memset
  78              	.LVL2:
  79              		.loc 1 62 0
  80 0026 4FF00008 		mov	r8, #0
  81 002a 3B4D     		ldr	r5, .L17+12
  82 002c 3B4E     		ldr	r6, .L17+16
  83              	.LBB41:
  84              	.LBB42:
  85              		.file 3 "../../lib/e-puck2_main-processor/ChibiOS//os/rt/include/chbsem.h"
  86              		.loc 3 143 0
  87 002e 3C4C     		ldr	r4, .L17+20
  88              	.LBE42:
  89              	.LBE41:
  90              		.loc 1 110 0
  91 0030 9FED3C9A 		vldr.32	s18, .L17+24
  92 0034 DFED3C8A 		vldr.32	s17, .L17+28
  93 0038 9FED3C8A 		vldr.32	s16, .L17+32
  94              		.loc 1 116 0
  95 003c 4FF0000A 		mov	r10, #0
  96              		.loc 1 61 0
  97 0040 C146     		mov	r9, r8
  98              		.loc 1 60 0
  99 0042 4746     		mov	r7, r8
 100              	.LVL3:
 101              	.L2:
 102              	.LBB46:
 103              	.LBB43:
 104              		.loc 3 143 0
 105 0044 2046     		mov	r0, r4
 106 0046 FFF7FEFF 		bl	chSemWait
 107              	.LVL4:
 108              	.LBE43:
 109              	.LBE46:
 110              		.loc 1 69 0
 111 004a FFF7FEFF 		bl	dcmi_get_last_image_ptr
 112              	.LVL5:
 113              		.loc 1 71 0
 114 004e 012F     		cmp	r7, #1
ARM GAS  C:\Users\Steph\AppData\Local\Temp\ccMUW5TL.s 			page 3


 115 0050 50D9     		bls	.L12
 116              	.L16:
 117              	.LVL6:
 118              	.LBB47:
 119              		.loc 1 76 0
 120 0052 0378     		ldrb	r3, [r0]	@ zero_extendqisi2
 121 0054 DB08     		lsrs	r3, r3, #3
 122 0056 8DF80430 		strb	r3, [sp, #4]
 123 005a 01A9     		add	r1, sp, #4
 124              		.loc 1 73 0
 125 005c 0022     		movs	r2, #0
 126              	.LVL7:
 127              	.L10:
 128              		.loc 1 73 0 is_stmt 0 discriminator 2
 129 005e 0132     		adds	r2, r2, #1
 130              	.LVL8:
 131 0060 B2F5207F 		cmp	r2, #640
 132 0064 16D0     		beq	.L15
 133              	.L7:
 134              		.loc 1 76 0 is_stmt 1
 135 0066 10F81230 		ldrb	r3, [r0, r2, lsl #1]	@ zero_extendqisi2
 136              		.loc 1 79 0
 137 006a 092A     		cmp	r2, #9
 138              		.loc 1 76 0
 139 006c 4FEAD303 		lsr	r3, r3, #3
 140 0070 01F8013F 		strb	r3, [r1, #1]!
 141              		.loc 1 79 0
 142 0074 F3DD     		ble	.L10
 143              		.loc 1 90 0
 144 0076 11F80A7C 		ldrb	r7, [r1, #-10]	@ zero_extendqisi2
 145 007a A7EB030C 		sub	ip, r7, r3
 146 007e BCF1080F 		cmp	ip, #8
 147              		.loc 1 93 0
 148 0082 A3EB0703 		sub	r3, r3, r7
 149              		.loc 1 90 0
 150 0086 38DD     		ble	.L6
 151              		.loc 1 91 0
 152 0088 1FFA82F8 		uxth	r8, r2
 153              	.LVL9:
 154              		.loc 1 73 0
 155 008c 0132     		adds	r2, r2, #1
 156              	.LVL10:
 157 008e B2F5207F 		cmp	r2, #640
 158 0092 E8D1     		bne	.L7
 159              	.L15:
 160              	.LBE47:
 161              		.loc 1 99 0
 162 0094 A9EB0803 		sub	r3, r9, r8
 163 0098 9BB2     		uxth	r3, r3
 164              	.LVL11:
 165              		.loc 1 109 0
 166 009a 01AA     		add	r2, sp, #4
 167              	.LVL12:
 168 009c 4244     		add	r2, r2, r8
 169              		.loc 1 101 0
 170 009e 08EB5301 		add	r1, r8, r3, lsr #1
 171 00a2 07EE901A 		vmov	s15, r1	@ int
ARM GAS  C:\Users\Steph\AppData\Local\Temp\ccMUW5TL.s 			page 4


 172              		.loc 1 109 0
 173 00a6 927A     		ldrb	r2, [r2, #10]	@ zero_extendqisi2
 174              		.loc 1 101 0
 175 00a8 F8EEE77A 		vcvt.f32.s32	s15, s15
 176              		.loc 1 109 0
 177 00ac 072A     		cmp	r2, #7
 178              		.loc 1 101 0
 179 00ae C5ED007A 		vstr.32	s15, [r5]
 180              		.loc 1 109 0
 181 00b2 27D8     		bhi	.L8
 182              		.loc 1 109 0 is_stmt 0 discriminator 1
 183 00b4 01AA     		add	r2, sp, #4
 184 00b6 4A44     		add	r2, r2, r9
 185 00b8 12F80A2C 		ldrb	r2, [r2, #-10]	@ zero_extendqisi2
 186 00bc 072A     		cmp	r2, #7
 187 00be 21D8     		bhi	.L8
 188              		.loc 1 110 0 is_stmt 1
 189 00c0 07EE903A 		vmov	s15, r3	@ int
 190 00c4 F8EEE77A 		vcvt.f32.s32	s15, s15
 191 00c8 03FB03F3 		mul	r3, r3, r3
 192              	.LVL13:
 193 00cc 29EE677A 		vnmul.f32	s14, s18, s15
 194 00d0 07EE903A 		vmov	s15, r3	@ int
 195 00d4 F8EEE77A 		vcvt.f32.s32	s15, s15
 196              		.loc 1 126 0
 197 00d8 0027     		movs	r7, #0
 198              		.loc 1 110 0
 199 00da A7EEA87A 		vfma.f32	s14, s15, s17
 200              	.LBB48:
 201              	.LBB44:
 202              		.loc 3 143 0
 203 00de 2046     		mov	r0, r4
 204              	.LVL14:
 205              	.LBE44:
 206              	.LBE48:
 207              		.loc 1 110 0
 208 00e0 77EE087A 		vadd.f32	s15, s14, s16
 209 00e4 C6ED007A 		vstr.32	s15, [r6]
 210              	.LVL15:
 211              	.LBB49:
 212              	.LBB45:
 213              		.loc 3 143 0
 214 00e8 FFF7FEFF 		bl	chSemWait
 215              	.LVL16:
 216              	.LBE45:
 217              	.LBE49:
 218              		.loc 1 69 0
 219 00ec FFF7FEFF 		bl	dcmi_get_last_image_ptr
 220              	.LVL17:
 221              		.loc 1 71 0
 222 00f0 012F     		cmp	r7, #1
 223 00f2 AED8     		bhi	.L16
 224              	.LVL18:
 225              	.L12:
 226              		.loc 1 129 0
 227 00f4 0137     		adds	r7, r7, #1
 228              	.LVL19:
ARM GAS  C:\Users\Steph\AppData\Local\Temp\ccMUW5TL.s 			page 5


 229 00f6 FFB2     		uxtb	r7, r7
 230              	.LVL20:
 231 00f8 A4E7     		b	.L2
 232              	.LVL21:
 233              	.L6:
 234              	.LBB50:
 235              		.loc 1 93 0
 236 00fa 082B     		cmp	r3, #8
 237              		.loc 1 94 0
 238 00fc C8BF     		it	gt
 239 00fe 1FFA82F9 		uxthgt	r9, r2
 240              	.LVL22:
 241 0102 ACE7     		b	.L10
 242              	.LVL23:
 243              	.L8:
 244              	.LBE50:
 245              		.loc 1 116 0
 246 0104 C6F800A0 		str	r10, [r6]	@ float
 247              		.loc 1 126 0
 248 0108 0027     		movs	r7, #0
 249 010a 9BE7     		b	.L2
 250              	.L18:
 251              		.align	2
 252              	.L17:
 253 010c 00000000 		.word	ch
 254 0110 00000000 		.word	__stack_chk_guard
 255 0114 00000000 		.word	.LANCHOR0
 256 0118 00000000 		.word	.LANCHOR2
 257 011c 00000000 		.word	.LANCHOR3
 258 0120 00000000 		.word	.LANCHOR1
 259 0124 0BB5263E 		.word	1042724107
 260 0128 17B75139 		.word	961656599
 261 012c 295CEB41 		.word	1105943593
 262              		.cfi_endproc
 263              	.LFE258:
 264              		.size	ProcessImage, .-ProcessImage
 265              		.section	.text.CaptureImage,"ax",%progbits
 266              		.align	1
 267              		.p2align 4,,15
 268              		.syntax unified
 269              		.thumb
 270              		.thumb_func
 271              		.fpu fpv4-sp-d16
 272              		.type	CaptureImage, %function
 273              	CaptureImage:
 274              	.LFB257:
 275              		.loc 1 20 0
 276              		.cfi_startproc
 277              		@ Volatile: function does not return.
 278              		@ args = 0, pretend = 0, frame = 8
 279              		@ frame_needed = 0, uses_anonymous_args = 0
 280              	.LVL24:
 281 0000 80B5     		push	{r7, lr}
 282              		.cfi_def_cfa_offset 8
 283              		.cfi_offset 7, -8
 284              		.cfi_offset 14, -4
 285              	.LBB67:
ARM GAS  C:\Users\Steph\AppData\Local\Temp\ccMUW5TL.s 			page 6


 286              	.LBB68:
 287              		.loc 2 135 0
 288 0002 244C     		ldr	r4, .L25
 289              	.LBE68:
 290              	.LBE67:
 291              		.loc 1 20 0
 292 0004 244A     		ldr	r2, .L25+4
 293              	.LBB70:
 294              	.LBB69:
 295              		.loc 2 135 0
 296 0006 A369     		ldr	r3, [r4, #24]
 297 0008 2449     		ldr	r1, .L25+8
 298 000a 9961     		str	r1, [r3, #24]
 299              	.LBE69:
 300              	.LBE70:
 301              		.loc 1 20 0
 302 000c 86B0     		sub	sp, sp, #24
 303              		.cfi_def_cfa_offset 32
 304              		.loc 1 26 0
 305 000e 0223     		movs	r3, #2
 306 0010 2025     		movs	r5, #32
 307              		.loc 1 20 0
 308 0012 1668     		ldr	r6, [r2]
 309              		.loc 1 26 0
 310 0014 0093     		str	r3, [sp]
 311 0016 0A22     		movs	r2, #10
 312 0018 4FF42073 		mov	r3, #640
 313 001c 0021     		movs	r1, #0
 314 001e CDE90155 		strd	r5, r5, [sp, #4]
 315 0022 3020     		movs	r0, #48
 316              	.LVL25:
 317              		.loc 1 20 0
 318 0024 0596     		str	r6, [sp, #20]
 319              		.loc 1 26 0
 320 0026 FFF7FEFF 		bl	po8030_advanced_config
 321              	.LVL26:
 322 002a 1D4E     		ldr	r6, .L25+12
 323              	.LBB71:
 324              	.LBB72:
 325              	.LBB73:
 326              	.LBB74:
 327              		.file 4 "../../lib/e-puck2_main-processor/ChibiOS//os/rt/include/chsys.h"
 328              		.loc 4 367 0
 329 002c 1D4F     		ldr	r7, .L25+16
 330              	.LBE74:
 331              	.LBE73:
 332              	.LBE72:
 333              	.LBE71:
 334              		.loc 1 27 0
 335 002e 0020     		movs	r0, #0
 336 0030 FFF7FEFF 		bl	po8030_set_awb
 337              	.LVL27:
 338              		.loc 1 28 0
 339 0034 FFF7FEFF 		bl	dcmi_enable_double_buffering
 340              	.LVL28:
 341              		.loc 1 29 0
 342 0038 0020     		movs	r0, #0
ARM GAS  C:\Users\Steph\AppData\Local\Temp\ccMUW5TL.s 			page 7


 343 003a FFF7FEFF 		bl	dcmi_set_capture_mode
 344              	.LVL29:
 345              	.LBB92:
 346              	.LBB89:
 347              	.LBB79:
 348              	.LBB80:
 349              		.loc 3 271 0
 350 003e B046     		mov	r8, r6
 351              	.LBE80:
 352              	.LBE79:
 353              	.LBE89:
 354              	.LBE92:
 355              		.loc 1 30 0
 356 0040 FFF7FEFF 		bl	dcmi_prepare
 357              	.LVL30:
 358 0044 13E0     		b	.L22
 359              	.LVL31:
 360              	.L20:
 361              	.LBB93:
 362              	.LBB90:
 363              		.loc 3 286 0
 364 0046 FFF7FEFF 		bl	chSchRescheduleS
 365              	.LVL32:
 366              	.LBB82:
 367              	.LBB78:
 368              		.loc 4 360 0
 369 004a FFF7FEFF 		bl	_dbg_check_unlock
 370              	.LVL33:
 371              		.loc 4 361 0
 372 004e FFF7FEFF 		bl	_stats_stop_measure_crit_thd
 373              	.LVL34:
 374              		.loc 4 367 0
 375 0052 2368     		ldr	r3, [r4]
 376 0054 A342     		cmp	r3, r4
 377 0056 07D0     		beq	.L21
 378 0058 A269     		ldr	r2, [r4, #24]
 379 005a 9B68     		ldr	r3, [r3, #8]
 380 005c 9268     		ldr	r2, [r2, #8]
 381 005e 9A42     		cmp	r2, r3
 382 0060 02D2     		bcs	.L21
 383 0062 3846     		mov	r0, r7
 384 0064 FFF7FEFF 		bl	chSysHalt
 385              	.LVL35:
 386              	.L21:
 387              	.LBB75:
 388              	.LBB76:
 389              	.LBB77:
 390              		.file 5 "../../lib/e-puck2_main-processor/ChibiOS//os/ext/CMSIS/include/core_cmFunc.h"
 391              		.loc 5 546 0
 392 0068 0023     		movs	r3, #0
 393              		.syntax unified
 394              	@ 546 "../../lib/e-puck2_main-processor/ChibiOS//os/ext/CMSIS/include/core_cmFunc.h" 1
 395 006a 83F31188 		MSR basepri, r3
 396              	@ 0 "" 2
 397              	.LVL36:
 398              		.thumb
 399              		.syntax unified
ARM GAS  C:\Users\Steph\AppData\Local\Temp\ccMUW5TL.s 			page 8


 400              	.L22:
 401              	.LBE77:
 402              	.LBE76:
 403              	.LBE75:
 404              	.LBE78:
 405              	.LBE82:
 406              	.LBE90:
 407              	.LBE93:
 408              		.loc 1 36 0 discriminator 1
 409 006e FFF7FEFF 		bl	dcmi_capture_start
 410              	.LVL37:
 411              		.loc 1 38 0 discriminator 1
 412 0072 FFF7FEFF 		bl	wait_image_ready
 413              	.LVL38:
 414              	.LBB94:
 415              	.LBB91:
 416              	.LBB83:
 417              	.LBB84:
 418              	.LBB85:
 419              	.LBB86:
 420              	.LBB87:
 421              		.loc 5 546 0 discriminator 1
 422              		.syntax unified
 423              	@ 546 "../../lib/e-puck2_main-processor/ChibiOS//os/ext/CMSIS/include/core_cmFunc.h" 1
 424 0076 85F31188 		MSR basepri, r5
 425              	@ 0 "" 2
 426              	.LVL39:
 427              		.thumb
 428              		.syntax unified
 429              	.LBE87:
 430              	.LBE86:
 431              	.LBE85:
 432              		.loc 4 349 0 discriminator 1
 433 007a FFF7FEFF 		bl	_stats_start_measure_crit_thd
 434              	.LVL40:
 435              		.loc 4 350 0 discriminator 1
 436 007e FFF7FEFF 		bl	_dbg_check_lock
 437              	.LVL41:
 438              	.LBE84:
 439              	.LBE83:
 440              	.LBB88:
 441              	.LBB81:
 442              		.loc 3 268 0 discriminator 1
 443 0082 FFF7FEFF 		bl	chDbgCheckClassI
 444              	.LVL42:
 445              		.loc 3 270 0 discriminator 1
 446 0086 B368     		ldr	r3, [r6, #8]
 447 0088 002B     		cmp	r3, #0
 448 008a DCDC     		bgt	.L20
 449              		.loc 3 271 0
 450 008c 4046     		mov	r0, r8
 451 008e FFF7FEFF 		bl	chSemSignalI
 452              	.LVL43:
 453 0092 D8E7     		b	.L20
 454              	.L26:
 455              		.align	2
 456              	.L25:
ARM GAS  C:\Users\Steph\AppData\Local\Temp\ccMUW5TL.s 			page 9


 457 0094 00000000 		.word	ch
 458 0098 00000000 		.word	__stack_chk_guard
 459 009c 00000000 		.word	.LANCHOR4
 460 00a0 00000000 		.word	.LANCHOR1
 461 00a4 00000000 		.word	.LANCHOR5
 462              	.LBE81:
 463              	.LBE88:
 464              	.LBE91:
 465              	.LBE94:
 466              		.cfi_endproc
 467              	.LFE257:
 468              		.size	CaptureImage, .-CaptureImage
 469              		.section	.text.get_distance_cm,"ax",%progbits
 470              		.align	1
 471              		.p2align 4,,15
 472              		.global	get_distance_cm
 473              		.syntax unified
 474              		.thumb
 475              		.thumb_func
 476              		.fpu fpv4-sp-d16
 477              		.type	get_distance_cm, %function
 478              	get_distance_cm:
 479              	.LFB259:
 480              		.loc 1 133 0
 481              		.cfi_startproc
 482              		@ args = 0, pretend = 0, frame = 8
 483              		@ frame_needed = 0, uses_anonymous_args = 0
 484 0000 00B5     		push	{lr}
 485              		.cfi_def_cfa_offset 4
 486              		.cfi_offset 14, -4
 487 0002 084B     		ldr	r3, .L31
 488              		.loc 1 134 0
 489 0004 0849     		ldr	r1, .L31+4
 490              		.loc 1 133 0
 491 0006 1A68     		ldr	r2, [r3]
 492              		.loc 1 135 0
 493 0008 91ED000A 		vldr.32	s0, [r1]
 494              		.loc 1 133 0
 495 000c 83B0     		sub	sp, sp, #12
 496              		.cfi_def_cfa_offset 16
 497              		.loc 1 133 0
 498 000e 0192     		str	r2, [sp, #4]
 499              		.loc 1 135 0
 500 0010 019A     		ldr	r2, [sp, #4]
 501 0012 1B68     		ldr	r3, [r3]
 502 0014 9A42     		cmp	r2, r3
 503 0016 02D1     		bne	.L30
 504 0018 03B0     		add	sp, sp, #12
 505              		.cfi_remember_state
 506              		.cfi_def_cfa_offset 4
 507              		@ sp needed
 508 001a 5DF804FB 		ldr	pc, [sp], #4
 509              	.L30:
 510              		.cfi_restore_state
 511 001e FFF7FEFF 		bl	__stack_chk_fail
 512              	.LVL44:
 513              	.L32:
ARM GAS  C:\Users\Steph\AppData\Local\Temp\ccMUW5TL.s 			page 10


 514 0022 00BF     		.align	2
 515              	.L31:
 516 0024 00000000 		.word	__stack_chk_guard
 517 0028 00000000 		.word	.LANCHOR3
 518              		.cfi_endproc
 519              	.LFE259:
 520              		.size	get_distance_cm, .-get_distance_cm
 521              		.section	.text.get_position_pxl,"ax",%progbits
 522              		.align	1
 523              		.p2align 4,,15
 524              		.global	get_position_pxl
 525              		.syntax unified
 526              		.thumb
 527              		.thumb_func
 528              		.fpu fpv4-sp-d16
 529              		.type	get_position_pxl, %function
 530              	get_position_pxl:
 531              	.LFB260:
 532              		.loc 1 137 0
 533              		.cfi_startproc
 534              		@ args = 0, pretend = 0, frame = 8
 535              		@ frame_needed = 0, uses_anonymous_args = 0
 536 0000 00B5     		push	{lr}
 537              		.cfi_def_cfa_offset 4
 538              		.cfi_offset 14, -4
 539 0002 084B     		ldr	r3, .L37
 540              		.loc 1 138 0
 541 0004 0849     		ldr	r1, .L37+4
 542              		.loc 1 137 0
 543 0006 1A68     		ldr	r2, [r3]
 544              		.loc 1 139 0
 545 0008 91ED000A 		vldr.32	s0, [r1]
 546              		.loc 1 137 0
 547 000c 83B0     		sub	sp, sp, #12
 548              		.cfi_def_cfa_offset 16
 549              		.loc 1 137 0
 550 000e 0192     		str	r2, [sp, #4]
 551              		.loc 1 139 0
 552 0010 019A     		ldr	r2, [sp, #4]
 553 0012 1B68     		ldr	r3, [r3]
 554 0014 9A42     		cmp	r2, r3
 555 0016 02D1     		bne	.L36
 556 0018 03B0     		add	sp, sp, #12
 557              		.cfi_remember_state
 558              		.cfi_def_cfa_offset 4
 559              		@ sp needed
 560 001a 5DF804FB 		ldr	pc, [sp], #4
 561              	.L36:
 562              		.cfi_restore_state
 563 001e FFF7FEFF 		bl	__stack_chk_fail
 564              	.LVL45:
 565              	.L38:
 566 0022 00BF     		.align	2
 567              	.L37:
 568 0024 00000000 		.word	__stack_chk_guard
 569 0028 00000000 		.word	.LANCHOR2
 570              		.cfi_endproc
ARM GAS  C:\Users\Steph\AppData\Local\Temp\ccMUW5TL.s 			page 11


 571              	.LFE260:
 572              		.size	get_position_pxl, .-get_position_pxl
 573              		.section	.text.image_filter,"ax",%progbits
 574              		.align	1
 575              		.p2align 4,,15
 576              		.global	image_filter
 577              		.syntax unified
 578              		.thumb
 579              		.thumb_func
 580              		.fpu fpv4-sp-d16
 581              		.type	image_filter, %function
 582              	image_filter:
 583              	.LFB261:
 584              		.loc 1 142 0
 585              		.cfi_startproc
 586              		@ args = 0, pretend = 0, frame = 8
 587              		@ frame_needed = 0, uses_anonymous_args = 0
 588 0000 00B5     		push	{lr}
 589              		.cfi_def_cfa_offset 4
 590              		.cfi_offset 14, -4
 591 0002 064B     		ldr	r3, .L43
 592 0004 83B0     		sub	sp, sp, #12
 593              		.cfi_def_cfa_offset 16
 594              		.loc 1 142 0
 595 0006 1A68     		ldr	r2, [r3]
 596 0008 0192     		str	r2, [sp, #4]
 597              		.loc 1 144 0
 598 000a 019A     		ldr	r2, [sp, #4]
 599 000c 1B68     		ldr	r3, [r3]
 600 000e 9A42     		cmp	r2, r3
 601 0010 02D1     		bne	.L42
 602 0012 03B0     		add	sp, sp, #12
 603              		.cfi_remember_state
 604              		.cfi_def_cfa_offset 4
 605              		@ sp needed
 606 0014 5DF804FB 		ldr	pc, [sp], #4
 607              	.L42:
 608              		.cfi_restore_state
 609 0018 FFF7FEFF 		bl	__stack_chk_fail
 610              	.LVL46:
 611              	.L44:
 612              		.align	2
 613              	.L43:
 614 001c 00000000 		.word	__stack_chk_guard
 615              		.cfi_endproc
 616              	.LFE261:
 617              		.size	image_filter, .-image_filter
 618              		.section	.text.get_width,"ax",%progbits
 619              		.align	1
 620              		.p2align 4,,15
 621              		.global	get_width
 622              		.syntax unified
 623              		.thumb
 624              		.thumb_func
 625              		.fpu fpv4-sp-d16
 626              		.type	get_width, %function
 627              	get_width:
ARM GAS  C:\Users\Steph\AppData\Local\Temp\ccMUW5TL.s 			page 12


 628              	.LFB262:
 629              		.loc 1 147 0
 630              		.cfi_startproc
 631              		@ args = 0, pretend = 0, frame = 8
 632              		@ frame_needed = 0, uses_anonymous_args = 0
 633 0000 00B5     		push	{lr}
 634              		.cfi_def_cfa_offset 4
 635              		.cfi_offset 14, -4
 636 0002 074B     		ldr	r3, .L49
 637 0004 83B0     		sub	sp, sp, #12
 638              		.cfi_def_cfa_offset 16
 639              		.loc 1 147 0
 640 0006 1A68     		ldr	r2, [r3]
 641 0008 0192     		str	r2, [sp, #4]
 642              	.LVL47:
 643              		.loc 1 166 0
 644 000a 019A     		ldr	r2, [sp, #4]
 645 000c 1B68     		ldr	r3, [r3]
 646 000e 9A42     		cmp	r2, r3
 647 0010 03D1     		bne	.L48
 648 0012 0020     		movs	r0, #0
 649 0014 03B0     		add	sp, sp, #12
 650              		.cfi_remember_state
 651              		.cfi_def_cfa_offset 4
 652              		@ sp needed
 653 0016 5DF804FB 		ldr	pc, [sp], #4
 654              	.L48:
 655              		.cfi_restore_state
 656 001a FFF7FEFF 		bl	__stack_chk_fail
 657              	.LVL48:
 658              	.L50:
 659 001e 00BF     		.align	2
 660              	.L49:
 661 0020 00000000 		.word	__stack_chk_guard
 662              		.cfi_endproc
 663              	.LFE262:
 664              		.size	get_width, .-get_width
 665              		.section	.text.process_image_start,"ax",%progbits
 666              		.align	1
 667              		.p2align 4,,15
 668              		.global	process_image_start
 669              		.syntax unified
 670              		.thumb
 671              		.thumb_func
 672              		.fpu fpv4-sp-d16
 673              		.type	process_image_start, %function
 674              	process_image_start:
 675              	.LFB263:
 676              		.loc 1 168 0
 677              		.cfi_startproc
 678              		@ args = 0, pretend = 0, frame = 8
 679              		@ frame_needed = 0, uses_anonymous_args = 0
 680 0000 30B5     		push	{r4, r5, lr}
 681              		.cfi_def_cfa_offset 12
 682              		.cfi_offset 4, -12
 683              		.cfi_offset 5, -8
 684              		.cfi_offset 14, -4
ARM GAS  C:\Users\Steph\AppData\Local\Temp\ccMUW5TL.s 			page 13


 685 0002 0E4C     		ldr	r4, .L55
 686              		.loc 1 169 0
 687 0004 0E4B     		ldr	r3, .L55+4
 688              		.loc 1 168 0
 689 0006 2268     		ldr	r2, [r4]
 690              		.loc 1 169 0
 691 0008 0E48     		ldr	r0, .L55+8
 692              		.loc 1 168 0
 693 000a 85B0     		sub	sp, sp, #20
 694              		.cfi_def_cfa_offset 32
 695              		.loc 1 169 0
 696 000c 0025     		movs	r5, #0
 697              		.loc 1 168 0
 698 000e 0392     		str	r2, [sp, #12]
 699              		.loc 1 169 0
 700 0010 4FF4AF61 		mov	r1, #1400
 701 0014 4022     		movs	r2, #64
 702 0016 0095     		str	r5, [sp]
 703 0018 FFF7FEFF 		bl	chThdCreateStatic
 704              	.LVL49:
 705              		.loc 1 170 0
 706 001c 0A4B     		ldr	r3, .L55+12
 707 001e 0095     		str	r5, [sp]
 708 0020 4022     		movs	r2, #64
 709 0022 0A48     		ldr	r0, .L55+16
 710 0024 4FF41E71 		mov	r1, #632
 711 0028 FFF7FEFF 		bl	chThdCreateStatic
 712              	.LVL50:
 713              		.loc 1 171 0
 714 002c 039A     		ldr	r2, [sp, #12]
 715 002e 2368     		ldr	r3, [r4]
 716 0030 9A42     		cmp	r2, r3
 717 0032 01D1     		bne	.L54
 718 0034 05B0     		add	sp, sp, #20
 719              		.cfi_remember_state
 720              		.cfi_def_cfa_offset 12
 721              		@ sp needed
 722 0036 30BD     		pop	{r4, r5, pc}
 723              	.L54:
 724              		.cfi_restore_state
 725 0038 FFF7FEFF 		bl	__stack_chk_fail
 726              	.LVL51:
 727              	.L56:
 728              		.align	2
 729              	.L55:
 730 003c 00000000 		.word	__stack_chk_guard
 731 0040 00000000 		.word	ProcessImage
 732 0044 00000000 		.word	.LANCHOR6
 733 0048 00000000 		.word	CaptureImage
 734 004c 00000000 		.word	.LANCHOR7
 735              		.cfi_endproc
 736              	.LFE263:
 737              		.size	process_image_start, .-process_image_start
 738              		.section	.bss.distance_cm,"aw",%nobits
 739              		.align	2
 740              		.set	.LANCHOR3,. + 0
 741              		.type	distance_cm, %object
ARM GAS  C:\Users\Steph\AppData\Local\Temp\ccMUW5TL.s 			page 14


 742              		.size	distance_cm, 4
 743              	distance_cm:
 744 0000 00000000 		.space	4
 745              		.section	.bss.position_pxl,"aw",%nobits
 746              		.align	2
 747              		.set	.LANCHOR2,. + 0
 748              		.type	position_pxl, %object
 749              		.size	position_pxl, 4
 750              	position_pxl:
 751 0000 00000000 		.space	4
 752              		.section	.bss.waCaptureImage,"aw",%nobits
 753              		.align	3
 754              		.set	.LANCHOR7,. + 0
 755              		.type	waCaptureImage, %object
 756              		.size	waCaptureImage, 632
 757              	waCaptureImage:
 758 0000 00000000 		.space	632
 758      00000000 
 758      00000000 
 758      00000000 
 758      00000000 
 759              		.section	.bss.waProcessImage,"aw",%nobits
 760              		.align	3
 761              		.set	.LANCHOR6,. + 0
 762              		.type	waProcessImage, %object
 763              		.size	waProcessImage, 1400
 764              	waProcessImage:
 765 0000 00000000 		.space	1400
 765      00000000 
 765      00000000 
 765      00000000 
 765      00000000 
 766              		.section	.data.image_ready_sem,"aw",%progbits
 767              		.align	2
 768              		.set	.LANCHOR1,. + 0
 769              		.type	image_ready_sem, %object
 770              		.size	image_ready_sem, 12
 771              	image_ready_sem:
 772 0000 00000000 		.word	image_ready_sem
 773 0004 00000000 		.word	image_ready_sem
 774 0008 00000000 		.word	0
 775              		.section	.rodata.__FUNCTION__.11839,"a",%progbits
 776              		.align	2
 777              		.set	.LANCHOR4,. + 0
 778              		.type	__FUNCTION__.11839, %object
 779              		.size	__FUNCTION__.11839, 13
 780              	__FUNCTION__.11839:
 781 0000 43617074 		.ascii	"CaptureImage\000"
 781      75726549 
 781      6D616765 
 781      00
 782              		.section	.rodata.__FUNCTION__.11846,"a",%progbits
 783              		.align	2
 784              		.set	.LANCHOR0,. + 0
 785              		.type	__FUNCTION__.11846, %object
 786              		.size	__FUNCTION__.11846, 13
 787              	__FUNCTION__.11846:
ARM GAS  C:\Users\Steph\AppData\Local\Temp\ccMUW5TL.s 			page 15


 788 0000 50726F63 		.ascii	"ProcessImage\000"
 788      65737349 
 788      6D616765 
 788      00
 789              		.section	.rodata.__func__.7153,"a",%progbits
 790              		.align	2
 791              		.set	.LANCHOR5,. + 0
 792              		.type	__func__.7153, %object
 793              		.size	__func__.7153, 12
 794              	__func__.7153:
 795 0000 63685379 		.ascii	"chSysUnlock\000"
 795      73556E6C 
 795      6F636B00 
 796              		.text
 797              	.Letext0:
 798              		.file 6 "c:\\users\\steph\\desktop\\epfl\\passerelle_sem2\\sysemb_robotique\\eclipse_e-puck2\\tool
 799              		.file 7 "c:\\users\\steph\\desktop\\epfl\\passerelle_sem2\\sysemb_robotique\\eclipse_e-puck2\\tool
 800              		.file 8 "c:\\users\\steph\\desktop\\epfl\\passerelle_sem2\\sysemb_robotique\\eclipse_e-puck2\\tool
 801              		.file 9 "../../lib/e-puck2_main-processor/ChibiOS//os/rt/ports/ARMCMx/compilers/GCC/chtypes.h"
 802              		.file 10 "../../lib/e-puck2_main-processor/ChibiOS//os/rt/include/chsystypes.h"
 803              		.file 11 "../../lib/e-puck2_main-processor/ChibiOS//os/rt/include/chschd.h"
 804              		.file 12 "../../lib/e-puck2_main-processor/ChibiOS//os/ext/CMSIS/include/core_cm4.h"
 805              		.file 13 "../../lib/e-puck2_main-processor/ChibiOS//os/ext/CMSIS/ST/system_stm32f4xx.h"
 806              		.file 14 "../../lib/e-puck2_main-processor/ChibiOS//os/ext/CMSIS/ST/stm32f407xx.h"
 807              		.file 15 "../../lib/e-puck2_main-processor/ChibiOS//os/rt/ports/ARMCMx/chcore.h"
 808              		.file 16 "../../lib/e-puck2_main-processor/ChibiOS//os/rt/ports/ARMCMx/chcore_v7m.h"
 809              		.file 17 "../../lib/e-puck2_main-processor/ChibiOS//os/rt/include/chdebug.h"
 810              		.file 18 "../../lib/e-puck2_main-processor/ChibiOS//os/rt/include/chtm.h"
 811              		.file 19 "../../lib/e-puck2_main-processor/ChibiOS//os/rt/include/chstats.h"
 812              		.file 20 "../../lib/e-puck2_main-processor/ChibiOS//os/rt/include/chsem.h"
 813              		.file 21 "../../lib/e-puck2_main-processor/ChibiOS//os/rt/include/chmtx.h"
 814              		.file 22 "../../lib/e-puck2_main-processor/ChibiOS//os/rt/include/chevents.h"
 815              		.file 23 "../../lib/e-puck2_main-processor/ChibiOS//os/rt/include/chqueues.h"
 816              		.file 24 "../../lib/e-puck2_main-processor/ChibiOS//os/hal/ports/STM32/STM32F4xx/stm32_dma.h"
 817              		.file 25 "../../lib/e-puck2_main-processor/ChibiOS//os/hal/include/hal_ioblock.h"
 818              		.file 26 "../../lib/e-puck2_main-processor/ChibiOS//os/hal/ports/STM32/LLD/GPIOv2/pal_lld.h"
 819              		.file 27 "../../lib/e-puck2_main-processor/ChibiOS//os/hal/include/adc.h"
 820              		.file 28 "../../lib/e-puck2_main-processor/ChibiOS//os/hal/ports/STM32/STM32F4xx/adc_lld.h"
 821              		.file 29 "../../lib/e-puck2_main-processor/ChibiOS//os/hal/include/can.h"
 822              		.file 30 "../../lib/e-puck2_main-processor/ChibiOS//os/hal/ports/STM32/LLD/can_lld.h"
 823              		.file 31 "../../lib/e-puck2_main-processor/ChibiOS//os/hal/include/dac.h"
 824              		.file 32 "../../lib/e-puck2_main-processor/ChibiOS//os/hal/ports/STM32/LLD/DACv1/dac_lld.h"
 825              		.file 33 "../../lib/e-puck2_main-processor/ChibiOS//os/hal/include/ext.h"
 826              		.file 34 "../../lib/e-puck2_main-processor/ChibiOS//os/hal/ports/STM32/LLD/ext_lld.h"
 827              		.file 35 "../../lib/e-puck2_main-processor/ChibiOS//os/hal/include/gpt.h"
 828              		.file 36 "../../lib/e-puck2_main-processor/ChibiOS//os/hal/ports/STM32/LLD/TIMv1/gpt_lld.h"
 829              		.file 37 "../../lib/e-puck2_main-processor/ChibiOS//os/hal/ports/STM32/LLD/TIMv1/stm32_tim.h"
 830              		.file 38 "../../lib/e-puck2_main-processor/ChibiOS//os/hal/include/i2c.h"
 831              		.file 39 "../../lib/e-puck2_main-processor/ChibiOS//os/hal/ports/STM32/LLD/I2Cv1/i2c_lld.h"
 832              		.file 40 "../../lib/e-puck2_main-processor/ChibiOS//os/hal/include/i2s.h"
 833              		.file 41 "../../lib/e-puck2_main-processor/ChibiOS//os/hal/ports/STM32/LLD/SPIv1/i2s_lld.h"
 834              		.file 42 "../../lib/e-puck2_main-processor/ChibiOS//os/hal/include/pwm.h"
 835              		.file 43 "../../lib/e-puck2_main-processor/ChibiOS//os/hal/ports/STM32/LLD/TIMv1/pwm_lld.h"
 836              		.file 44 "../../lib/e-puck2_main-processor/ChibiOS//os/hal/include/serial.h"
 837              		.file 45 "../../lib/e-puck2_main-processor/ChibiOS//os/hal/ports/STM32/LLD/USARTv1/serial_lld.h"
 838              		.file 46 "../../lib/e-puck2_main-processor/ChibiOS//os/hal/include/sdc.h"
 839              		.file 47 "../../lib/e-puck2_main-processor/ChibiOS//os/hal/ports/STM32/LLD/sdc_lld.h"
ARM GAS  C:\Users\Steph\AppData\Local\Temp\ccMUW5TL.s 			page 16


 840              		.file 48 "../../lib/e-puck2_main-processor/ChibiOS//os/hal/include/spi.h"
 841              		.file 49 "../../lib/e-puck2_main-processor/ChibiOS//os/hal/ports/STM32/LLD/SPIv1/spi_lld.h"
 842              		.file 50 "../../lib/e-puck2_main-processor/ChibiOS//os/hal/include/usb.h"
 843              		.file 51 "../../lib/e-puck2_main-processor/ChibiOS//os/hal/ports/STM32/LLD/OTGv1/usb_lld.h"
 844              		.file 52 "../../lib/e-puck2_main-processor/ChibiOS//os/hal/ports/STM32/LLD/OTGv1/stm32_otg.h"
 845              		.file 53 "../../lib/e-puck2_main-processor/ChibiOS//os/hal/include/serial_usb.h"
 846              		.file 54 "../../lib/e-puck2_main-processor/src/usbcfg.h"
 847              		.file 55 "c:\\users\\steph\\desktop\\epfl\\passerelle_sem2\\sysemb_robotique\\eclipse_e-puck2\\too
 848              		.file 56 "c:\\users\\steph\\desktop\\epfl\\passerelle_sem2\\sysemb_robotique\\eclipse_e-puck2\\too
 849              		.file 57 "c:\\users\\steph\\desktop\\epfl\\passerelle_sem2\\sysemb_robotique\\eclipse_e-puck2\\too
 850              		.file 58 "c:\\users\\steph\\desktop\\epfl\\passerelle_sem2\\sysemb_robotique\\eclipse_e-puck2\\too
 851              		.file 59 "../../lib/e-puck2_main-processor/ChibiOS_ext/os/hal/include/../ports/STM32/STM32F4xx/dcm
 852              		.file 60 "../../lib/e-puck2_main-processor/src/camera/po8030.h"
 853              		.file 61 "../../lib/e-puck2_main-processor/src/camera/dcmi_camera.h"
 854              		.file 62 "c:\\users\\steph\\desktop\\epfl\\passerelle_sem2\\sysemb_robotique\\eclipse_e-puck2\\too
 855              		.file 63 "../../lib/msgbus/messagebus.h"
 856              		.file 64 "c:\\users\\steph\\desktop\\epfl\\passerelle_sem2\\sysemb_robotique\\eclipse_e-puck2\\too
 857              		.file 65 "../../lib/e-puck2_main-processor/src/parameter/parameter.h"
 858              		.file 66 "./main.h"
 859              		.file 67 "../../lib/e-puck2_main-processor/ChibiOS//os/rt/include/chthreads.h"
 860              		.file 68 "<built-in>"