ARM GAS  C:\Users\Steph\AppData\Local\Temp\cc7tkYNt.s 			page 1


   1              		.cpu cortex-m4
   2              		.eabi_attribute 27, 1
   3              		.eabi_attribute 28, 1
   4              		.eabi_attribute 20, 1
   5              		.eabi_attribute 21, 1
   6              		.eabi_attribute 23, 3
   7              		.eabi_attribute 24, 1
   8              		.eabi_attribute 25, 1
   9              		.eabi_attribute 26, 1
  10              		.eabi_attribute 30, 2
  11              		.eabi_attribute 34, 1
  12              		.eabi_attribute 18, 4
  13              		.file	"pi_regulator.c"
  14              		.text
  15              	.Ltext0:
  16              		.cfi_sections	.debug_frame
  17              		.section	.text.PiRegulator,"ax",%progbits
  18              		.align	1
  19              		.p2align 4,,15
  20              		.syntax unified
  21              		.thumb
  22              		.thumb_func
  23              		.fpu fpv4-sp-d16
  24              		.type	PiRegulator, %function
  25              	PiRegulator:
  26              	.LFB257:
  27              		.file 1 "pi_regulator.c"
  28              		.loc 1 14 0
  29              		.cfi_startproc
  30              		@ args = 0, pretend = 0, frame = 8
  31              		@ frame_needed = 0, uses_anonymous_args = 0
  32              	.LVL0:
  33 0000 30B5     		push	{r4, r5, lr}
  34              		.cfi_def_cfa_offset 12
  35              		.cfi_offset 4, -12
  36              		.cfi_offset 5, -8
  37              		.cfi_offset 14, -4
  38 0002 2DED0A8B 		vpush.64	{d8, d9, d10, d11, d12}
  39              		.cfi_def_cfa_offset 52
  40              		.cfi_offset 80, -52
  41              		.cfi_offset 81, -48
  42              		.cfi_offset 82, -44
  43              		.cfi_offset 83, -40
  44              		.cfi_offset 84, -36
  45              		.cfi_offset 85, -32
  46              		.cfi_offset 86, -28
  47              		.cfi_offset 87, -24
  48              		.cfi_offset 88, -20
  49              		.cfi_offset 89, -16
  50              	.LBB48:
  51              	.LBB49:
  52              		.file 2 "../../lib/e-puck2_main-processor/ChibiOS//os/rt/include/chregistry.h"
  53              		.loc 2 135 0
  54 0006 494C     		ldr	r4, .L13
  55              	.LBE49:
  56              	.LBE48:
  57              		.loc 1 14 0
ARM GAS  C:\Users\Steph\AppData\Local\Temp\cc7tkYNt.s 			page 2


  58 0008 494B     		ldr	r3, .L13+4
  59              		.loc 1 30 0
  60 000a 9FED4A9A 		vldr.32	s18, .L13+8
  61              	.LBB52:
  62              	.LBB50:
  63              		.loc 2 135 0
  64 000e A269     		ldr	r2, [r4, #24]
  65 0010 4949     		ldr	r1, .L13+12
  66              	.LBE50:
  67              	.LBE52:
  68              		.loc 1 14 0
  69 0012 1B68     		ldr	r3, [r3]
  70 0014 9FED49CA 		vldr.32	s24, .L13+16
  71              		.loc 1 49 0
  72 0018 DFED49BA 		vldr.32	s23, .L13+20
  73 001c 9FED49AA 		vldr.32	s20, .L13+24
  74 0020 DFED499A 		vldr.32	s19, .L13+28
  75              		.loc 1 67 0
  76 0024 9FED49BA 		vldr.32	s22, .L13+32
  77              	.LBB53:
  78              	.LBB51:
  79              		.loc 2 135 0
  80 0028 9161     		str	r1, [r2, #24]
  81              	.LBE51:
  82              	.LBE53:
  83              		.loc 1 14 0
  84 002a 83B0     		sub	sp, sp, #12
  85              		.cfi_def_cfa_offset 64
  86 002c F0EE49AA 		vmov.f32	s21, s18
  87              		.loc 1 14 0
  88 0030 0193     		str	r3, [sp, #4]
  89              	.LVL1:
  90 0032 44E0     		b	.L5
  91              	.LVL2:
  92              	.L12:
  93              		.loc 1 55 0
  94 0034 F1EE047A 		vmov.f32	s15, #5.0e+0
  95 0038 B4EEE79A 		vcmpe.f32	s18, s15
  96              		.loc 1 48 0
  97 003c B2EE047A 		vmov.f32	s14, #1.0e+1
  98              		.loc 1 55 0
  99 0040 F1EE10FA 		vmrs	APSR_nzcv, FPSCR
 100              		.loc 1 49 0
 101 0044 38EE6B8A 		vsub.f32	s16, s16, s23
 102              	.LVL3:
 103              		.loc 1 48 0
 104 0048 30EE470A 		vsub.f32	s0, s0, s14
 105              	.LVL4:
 106              		.loc 1 55 0
 107 004c 63DC     		bgt	.L8
 108              		.loc 1 58 0
 109 004e F9EE047A 		vmov.f32	s15, #-5.0e+0
 110 0052 B4EEE79A 		vcmpe.f32	s18, s15
 111 0056 F1EE10FA 		vmrs	APSR_nzcv, FPSCR
 112 005a 61D4     		bmi	.L9
 113              		.loc 1 62 0
 114 005c 39EE009A 		vadd.f32	s18, s18, s0
ARM GAS  C:\Users\Steph\AppData\Local\Temp\cc7tkYNt.s 			page 3


 115              	.LVL5:
 116 0060 DFED3B7A 		vldr.32	s15, .L13+36
 117 0064 69EE277A 		vmul.f32	s15, s18, s15
 118              	.LVL6:
 119              	.L4:
 120              		.loc 1 65 0
 121 0068 B1EE047A 		vmov.f32	s14, #5.0e+0
 122 006c E0EE077A 		vfma.f32	s15, s0, s14
 123              	.LVL7:
 124              		.loc 1 67 0
 125 0070 28EE0B7A 		vmul.f32	s14, s16, s22
 126 0074 67EE8A7A 		vmul.f32	s15, s15, s20
 127              	.LVL8:
 128 0078 27EE0A7A 		vmul.f32	s14, s14, s20
 129 007c C7EEA98A 		vdiv.f32	s17, s15, s19
 130              		.loc 1 66 0
 131 0080 DFED346A 		vldr.32	s13, .L13+40
 132 0084 C7EE297A 		vdiv.f32	s15, s14, s19
 133 0088 28EE268A 		vmul.f32	s16, s16, s13
 134              	.LVL9:
 135 008c 77EEA87A 		vadd.f32	s15, s15, s17
 136 0090 28EE0A8A 		vmul.f32	s16, s16, s20
 137              	.LVL10:
 138 0094 FDEEE77A 		vcvt.s32.f32	s15, s15
 139 0098 C8EE29CA 		vdiv.f32	s25, s16, s19
 140 009c 17EE900A 		vmov	r0, s15	@ int
 141              	.LVL11:
 142              	.L3:
 143              		.loc 1 85 0
 144 00a0 FFF7FEFF 		bl	right_motor_set_speed
 145              	.LVL12:
 146              		.loc 1 86 0
 147 00a4 78EEAC8A 		vadd.f32	s17, s17, s25
 148 00a8 FDEEE87A 		vcvt.s32.f32	s15, s17
 149 00ac 17EE900A 		vmov	r0, s15	@ int
 150 00b0 FFF7FEFF 		bl	left_motor_set_speed
 151              	.LVL13:
 152              		.loc 1 89 0
 153 00b4 05F10A01 		add	r1, r5, #10
 154 00b8 2846     		mov	r0, r5
 155 00ba FFF7FEFF 		bl	chThdSleepUntilWindowed
 156              	.LVL14:
 157              	.L5:
 158              	.LBB54:
 159              	.LBB55:
 160              	.LBB56:
 161              	.LBB57:
 162              	.LBB58:
 163              	.LBB59:
 164              	.LBB60:
 165              		.file 3 "../../lib/e-puck2_main-processor/ChibiOS//os/ext/CMSIS/include/core_cmFunc.h"
 166              		.loc 3 546 0
 167 00be 2023     		movs	r3, #32
 168              		.syntax unified
 169              	@ 546 "../../lib/e-puck2_main-processor/ChibiOS//os/ext/CMSIS/include/core_cmFunc.h" 1
 170 00c0 83F31188 		MSR basepri, r3
 171              	@ 0 "" 2
ARM GAS  C:\Users\Steph\AppData\Local\Temp\cc7tkYNt.s 			page 4


 172              	.LVL15:
 173              		.thumb
 174              		.syntax unified
 175              	.LBE60:
 176              	.LBE59:
 177              	.LBE58:
 178              		.file 4 "../../lib/e-puck2_main-processor/ChibiOS//os/rt/include/chsys.h"
 179              		.loc 4 349 0
 180 00c4 FFF7FEFF 		bl	_stats_start_measure_crit_thd
 181              	.LVL16:
 182              		.loc 4 350 0
 183 00c8 FFF7FEFF 		bl	_dbg_check_lock
 184              	.LVL17:
 185              	.LBE57:
 186              	.LBE56:
 187              	.LBB61:
 188              	.LBB62:
 189              		.file 5 "../../lib/e-puck2_main-processor/ChibiOS//os/rt/include/chvt.h"
 190              		.loc 5 231 0
 191 00cc A56A     		ldr	r5, [r4, #40]
 192              	.LBE62:
 193              	.LBE61:
 194              	.LBB63:
 195              	.LBB64:
 196              		.loc 4 360 0
 197 00ce FFF7FEFF 		bl	_dbg_check_unlock
 198              	.LVL18:
 199              		.loc 4 361 0
 200 00d2 FFF7FEFF 		bl	_stats_stop_measure_crit_thd
 201              	.LVL19:
 202              		.loc 4 367 0
 203 00d6 2368     		ldr	r3, [r4]
 204 00d8 A342     		cmp	r3, r4
 205 00da 07D0     		beq	.L2
 206 00dc A269     		ldr	r2, [r4, #24]
 207 00de 9B68     		ldr	r3, [r3, #8]
 208 00e0 9268     		ldr	r2, [r2, #8]
 209 00e2 9A42     		cmp	r2, r3
 210 00e4 02D2     		bcs	.L2
 211 00e6 1C48     		ldr	r0, .L13+44
 212 00e8 FFF7FEFF 		bl	chSysHalt
 213              	.LVL20:
 214              	.L2:
 215              	.LBB65:
 216              	.LBB66:
 217              	.LBB67:
 218              		.loc 3 546 0
 219 00ec 0023     		movs	r3, #0
 220              		.syntax unified
 221              	@ 546 "../../lib/e-puck2_main-processor/ChibiOS//os/ext/CMSIS/include/core_cmFunc.h" 1
 222 00ee 83F31188 		MSR basepri, r3
 223              	@ 0 "" 2
 224              	.LVL21:
 225              		.thumb
 226              		.syntax unified
 227              	.LBE67:
 228              	.LBE66:
ARM GAS  C:\Users\Steph\AppData\Local\Temp\cc7tkYNt.s 			page 5


 229              	.LBE65:
 230              	.LBE64:
 231              	.LBE63:
 232              	.LBE55:
 233              	.LBE54:
 234              		.loc 1 41 0
 235 00f2 FFF7FEFF 		bl	get_position_pxl
 236              	.LVL22:
 237 00f6 B0EE408A 		vmov.f32	s16, s0
 238              	.LVL23:
 239              		.loc 1 42 0
 240 00fa FFF7FEFF 		bl	get_distance_cm
 241              	.LVL24:
 242              		.loc 1 45 0
 243 00fe B5EE400A 		vcmp.f32	s0, #0
 244 0102 F1EE10FA 		vmrs	APSR_nzcv, FPSCR
 245 0106 95D1     		bne	.L12
 246 0108 F0EE4CCA 		vmov.f32	s25, s24
 247 010c F0EE6A8A 		vmov.f32	s17, s21
 248 0110 6FF07900 		mvn	r0, #121
 249 0114 C4E7     		b	.L3
 250              	.LVL25:
 251              	.L8:
 252              		.loc 1 56 0
 253 0116 B0EE679A 		vmov.f32	s18, s15
 254              	.LVL26:
 255 011a DFED107A 		vldr.32	s15, .L13+48
 256 011e A3E7     		b	.L4
 257              	.LVL27:
 258              	.L9:
 259              		.loc 1 59 0
 260 0120 B0EE679A 		vmov.f32	s18, s15
 261              	.LVL28:
 262 0124 DFED0E7A 		vldr.32	s15, .L13+52
 263 0128 9EE7     		b	.L4
 264              	.L14:
 265 012a 00BF     		.align	2
 266              	.L13:
 267 012c 00000000 		.word	ch
 268 0130 00000000 		.word	__stack_chk_guard
 269 0134 00000000 		.word	0
 270 0138 00000000 		.word	.LANCHOR0
 271 013c 9DDAF442 		.word	1123343005
 272 0140 0000AA43 		.word	1135214592
 273 0144 00007A44 		.word	1148846080
 274 0148 D95CA342 		.word	1118002393
 275 014c CDCCCCBD 		.word	-1110651699
 276 0150 0AD7233C 		.word	1008981770
 277 0154 CDCCCC3D 		.word	1036831949
 278 0158 00000000 		.word	.LANCHOR1
 279 015c CCCC4C3D 		.word	1028443340
 280 0160 CCCC4CBD 		.word	-1119040308
 281              		.cfi_endproc
 282              	.LFE257:
 283              		.size	PiRegulator, .-PiRegulator
 284              		.section	.text.pi_regulator_start,"ax",%progbits
 285              		.align	1
ARM GAS  C:\Users\Steph\AppData\Local\Temp\cc7tkYNt.s 			page 6


 286              		.p2align 4,,15
 287              		.global	pi_regulator_start
 288              		.syntax unified
 289              		.thumb
 290              		.thumb_func
 291              		.fpu fpv4-sp-d16
 292              		.type	pi_regulator_start, %function
 293              	pi_regulator_start:
 294              	.LFB258:
 295              		.loc 1 93 0
 296              		.cfi_startproc
 297              		@ args = 0, pretend = 0, frame = 8
 298              		@ frame_needed = 0, uses_anonymous_args = 0
 299 0000 10B5     		push	{r4, lr}
 300              		.cfi_def_cfa_offset 8
 301              		.cfi_offset 4, -8
 302              		.cfi_offset 14, -4
 303 0002 0A4C     		ldr	r4, .L19
 304              		.loc 1 94 0
 305 0004 0A4B     		ldr	r3, .L19+4
 306              		.loc 1 93 0
 307 0006 2268     		ldr	r2, [r4]
 308              		.loc 1 94 0
 309 0008 0A48     		ldr	r0, .L19+8
 310              		.loc 1 93 0
 311 000a 84B0     		sub	sp, sp, #16
 312              		.cfi_def_cfa_offset 24
 313              		.loc 1 94 0
 314 000c 4FF41E71 		mov	r1, #632
 315              		.loc 1 93 0
 316 0010 0392     		str	r2, [sp, #12]
 317              		.loc 1 94 0
 318 0012 0022     		movs	r2, #0
 319 0014 0092     		str	r2, [sp]
 320 0016 4022     		movs	r2, #64
 321 0018 FFF7FEFF 		bl	chThdCreateStatic
 322              	.LVL29:
 323              		.loc 1 95 0
 324 001c 039A     		ldr	r2, [sp, #12]
 325 001e 2368     		ldr	r3, [r4]
 326 0020 9A42     		cmp	r2, r3
 327 0022 01D1     		bne	.L18
 328 0024 04B0     		add	sp, sp, #16
 329              		.cfi_remember_state
 330              		.cfi_def_cfa_offset 8
 331              		@ sp needed
 332 0026 10BD     		pop	{r4, pc}
 333              	.L18:
 334              		.cfi_restore_state
 335 0028 FFF7FEFF 		bl	__stack_chk_fail
 336              	.LVL30:
 337              	.L20:
 338              		.align	2
 339              	.L19:
 340 002c 00000000 		.word	__stack_chk_guard
 341 0030 00000000 		.word	PiRegulator
 342 0034 00000000 		.word	.LANCHOR2
ARM GAS  C:\Users\Steph\AppData\Local\Temp\cc7tkYNt.s 			page 7


 343              		.cfi_endproc
 344              	.LFE258:
 345              		.size	pi_regulator_start, .-pi_regulator_start
 346              		.section	.bss.waPiRegulator,"aw",%nobits
 347              		.align	3
 348              		.set	.LANCHOR2,. + 0
 349              		.type	waPiRegulator, %object
 350              		.size	waPiRegulator, 632
 351              	waPiRegulator:
 352 0000 00000000 		.space	632
 352      00000000 
 352      00000000 
 352      00000000 
 352      00000000 
 353              		.section	.rodata.__FUNCTION__.11852,"a",%progbits
 354              		.align	2
 355              		.set	.LANCHOR0,. + 0
 356              		.type	__FUNCTION__.11852, %object
 357              		.size	__FUNCTION__.11852, 12
 358              	__FUNCTION__.11852:
 359 0000 50695265 		.ascii	"PiRegulator\000"
 359      67756C61 
 359      746F7200 
 360              		.section	.rodata.__func__.7153,"a",%progbits
 361              		.align	2
 362              		.set	.LANCHOR1,. + 0
 363              		.type	__func__.7153, %object
 364              		.size	__func__.7153, 12
 365              	__func__.7153:
 366 0000 63685379 		.ascii	"chSysUnlock\000"
 366      73556E6C 
 366      6F636B00 
 367              		.text
 368              	.Letext0:
 369              		.file 6 "c:\\users\\steph\\desktop\\epfl\\passerelle_sem2\\sysemb_robotique\\eclipse_e-puck2\\tool
 370              		.file 7 "c:\\users\\steph\\desktop\\epfl\\passerelle_sem2\\sysemb_robotique\\eclipse_e-puck2\\tool
 371              		.file 8 "c:\\users\\steph\\desktop\\epfl\\passerelle_sem2\\sysemb_robotique\\eclipse_e-puck2\\tool
 372              		.file 9 "../../lib/e-puck2_main-processor/ChibiOS//os/rt/ports/ARMCMx/compilers/GCC/chtypes.h"
 373              		.file 10 "../../lib/e-puck2_main-processor/ChibiOS//os/rt/include/chsystypes.h"
 374              		.file 11 "../../lib/e-puck2_main-processor/ChibiOS//os/rt/include/chschd.h"
 375              		.file 12 "../../lib/e-puck2_main-processor/ChibiOS//os/ext/CMSIS/include/core_cm4.h"
 376              		.file 13 "../../lib/e-puck2_main-processor/ChibiOS//os/ext/CMSIS/ST/system_stm32f4xx.h"
 377              		.file 14 "../../lib/e-puck2_main-processor/ChibiOS//os/ext/CMSIS/ST/stm32f407xx.h"
 378              		.file 15 "../../lib/e-puck2_main-processor/ChibiOS//os/rt/ports/ARMCMx/chcore.h"
 379              		.file 16 "../../lib/e-puck2_main-processor/ChibiOS//os/rt/ports/ARMCMx/chcore_v7m.h"
 380              		.file 17 "../../lib/e-puck2_main-processor/ChibiOS//os/rt/include/chdebug.h"
 381              		.file 18 "../../lib/e-puck2_main-processor/ChibiOS//os/rt/include/chtm.h"
 382              		.file 19 "../../lib/e-puck2_main-processor/ChibiOS//os/rt/include/chstats.h"
 383              		.file 20 "../../lib/e-puck2_main-processor/ChibiOS//os/rt/include/chsem.h"
 384              		.file 21 "../../lib/e-puck2_main-processor/ChibiOS//os/rt/include/chmtx.h"
 385              		.file 22 "../../lib/e-puck2_main-processor/ChibiOS//os/rt/include/chevents.h"
 386              		.file 23 "../../lib/e-puck2_main-processor/ChibiOS//os/rt/include/chqueues.h"
 387              		.file 24 "../../lib/e-puck2_main-processor/ChibiOS//os/hal/ports/STM32/STM32F4xx/stm32_dma.h"
 388              		.file 25 "../../lib/e-puck2_main-processor/ChibiOS//os/hal/include/hal_ioblock.h"
 389              		.file 26 "../../lib/e-puck2_main-processor/ChibiOS//os/hal/ports/STM32/LLD/GPIOv2/pal_lld.h"
 390              		.file 27 "../../lib/e-puck2_main-processor/ChibiOS//os/hal/include/adc.h"
 391              		.file 28 "../../lib/e-puck2_main-processor/ChibiOS//os/hal/ports/STM32/STM32F4xx/adc_lld.h"
ARM GAS  C:\Users\Steph\AppData\Local\Temp\cc7tkYNt.s 			page 8


 392              		.file 29 "../../lib/e-puck2_main-processor/ChibiOS//os/hal/include/can.h"
 393              		.file 30 "../../lib/e-puck2_main-processor/ChibiOS//os/hal/ports/STM32/LLD/can_lld.h"
 394              		.file 31 "../../lib/e-puck2_main-processor/ChibiOS//os/hal/include/dac.h"
 395              		.file 32 "../../lib/e-puck2_main-processor/ChibiOS//os/hal/ports/STM32/LLD/DACv1/dac_lld.h"
 396              		.file 33 "../../lib/e-puck2_main-processor/ChibiOS//os/hal/include/ext.h"
 397              		.file 34 "../../lib/e-puck2_main-processor/ChibiOS//os/hal/ports/STM32/LLD/ext_lld.h"
 398              		.file 35 "../../lib/e-puck2_main-processor/ChibiOS//os/hal/include/gpt.h"
 399              		.file 36 "../../lib/e-puck2_main-processor/ChibiOS//os/hal/ports/STM32/LLD/TIMv1/gpt_lld.h"
 400              		.file 37 "../../lib/e-puck2_main-processor/ChibiOS//os/hal/ports/STM32/LLD/TIMv1/stm32_tim.h"
 401              		.file 38 "../../lib/e-puck2_main-processor/ChibiOS//os/hal/include/i2c.h"
 402              		.file 39 "../../lib/e-puck2_main-processor/ChibiOS//os/hal/ports/STM32/LLD/I2Cv1/i2c_lld.h"
 403              		.file 40 "../../lib/e-puck2_main-processor/ChibiOS//os/hal/include/i2s.h"
 404              		.file 41 "../../lib/e-puck2_main-processor/ChibiOS//os/hal/ports/STM32/LLD/SPIv1/i2s_lld.h"
 405              		.file 42 "../../lib/e-puck2_main-processor/ChibiOS//os/hal/include/pwm.h"
 406              		.file 43 "../../lib/e-puck2_main-processor/ChibiOS//os/hal/ports/STM32/LLD/TIMv1/pwm_lld.h"
 407              		.file 44 "../../lib/e-puck2_main-processor/ChibiOS//os/hal/include/serial.h"
 408              		.file 45 "../../lib/e-puck2_main-processor/ChibiOS//os/hal/ports/STM32/LLD/USARTv1/serial_lld.h"
 409              		.file 46 "../../lib/e-puck2_main-processor/ChibiOS//os/hal/include/sdc.h"
 410              		.file 47 "../../lib/e-puck2_main-processor/ChibiOS//os/hal/ports/STM32/LLD/sdc_lld.h"
 411              		.file 48 "../../lib/e-puck2_main-processor/ChibiOS//os/hal/include/spi.h"
 412              		.file 49 "../../lib/e-puck2_main-processor/ChibiOS//os/hal/ports/STM32/LLD/SPIv1/spi_lld.h"
 413              		.file 50 "../../lib/e-puck2_main-processor/ChibiOS//os/hal/include/usb.h"
 414              		.file 51 "../../lib/e-puck2_main-processor/ChibiOS//os/hal/ports/STM32/LLD/OTGv1/usb_lld.h"
 415              		.file 52 "../../lib/e-puck2_main-processor/ChibiOS//os/hal/ports/STM32/LLD/OTGv1/stm32_otg.h"
 416              		.file 53 "../../lib/e-puck2_main-processor/ChibiOS//os/hal/include/serial_usb.h"
 417              		.file 54 "c:\\users\\steph\\desktop\\epfl\\passerelle_sem2\\sysemb_robotique\\eclipse_e-puck2\\too
 418              		.file 55 "c:\\users\\steph\\desktop\\epfl\\passerelle_sem2\\sysemb_robotique\\eclipse_e-puck2\\too
 419              		.file 56 "c:\\users\\steph\\desktop\\epfl\\passerelle_sem2\\sysemb_robotique\\eclipse_e-puck2\\too
 420              		.file 57 "c:\\users\\steph\\desktop\\epfl\\passerelle_sem2\\sysemb_robotique\\eclipse_e-puck2\\too
 421              		.file 58 "../../lib/e-puck2_main-processor/src/usbcfg.h"
 422              		.file 59 "../../lib/e-puck2_main-processor/ChibiOS_ext/os/hal/include/../ports/STM32/STM32F4xx/dcm
 423              		.file 60 "c:\\users\\steph\\desktop\\epfl\\passerelle_sem2\\sysemb_robotique\\eclipse_e-puck2\\too
 424              		.file 61 "../../lib/msgbus/messagebus.h"
 425              		.file 62 "c:\\users\\steph\\desktop\\epfl\\passerelle_sem2\\sysemb_robotique\\eclipse_e-puck2\\too
 426              		.file 63 "../../lib/e-puck2_main-processor/src/parameter/parameter.h"
 427              		.file 64 "./main.h"
 428              		.file 65 "../../lib/e-puck2_main-processor/ChibiOS//os/rt/include/chthreads.h"
 429              		.file 66 "../../lib/e-puck2_main-processor/src/motors.h"
 430              		.file 67 "./process_image.h"